(dp0
(S'0'
p1
S'900_All'
p2
tp3
(F-0.00019745998040754387
F0.00010058652631279863
tp4
s(g1
S'1200_All'
p5
tp6
(F-0.00029000512991878
F0.00014610216842166068
tp7
s(g1
S'1050_All'
p8
tp9
(F-0.00023727553729681328
F0.0001191983343272543
tp10
s(g1
S'500_All'
p11
tp12
(F-0.0002942705022825065
F0.0001179800253417046
tp13
s(g1
S'750_All'
p14
tp15
(F-0.00018789960812287676
F8.604248840080042e-05
tp16
s(g1
S'Inf_All'
p17
tp18
(F0.0003249157818013895
F0.0005033545704311582
tp19
s(g1
S'600_All'
p20
tp21
(F-0.00023572314430275743
F0.00010417501934147089
tp22
s.