ccollections
OrderedDict
p0
((lp1
(lp2
(S'eq1j'
p3
S'eq0b'
p4
(F200.0
F400.0
tp5
tp6
a(lp7
F200.0
aaa(lp8
(g3
g4
(F400.0
F600.0
tp9
tp10
a(lp11
F400.0
aaa(lp12
(g3
g4
(F600.0
F900.0
tp13
tp14
a(lp15
F600.0
aaa(lp16
(g3
g4
(F900.0
Finf
tp17
tp18
a(lp19
F900.0
aaa(lp20
(g3
S'eq1b'
p21
(F200.0
F400.0
tp22
tp23
a(lp24
F200.0
aaa(lp25
(g3
g21
(F400.0
F600.0
tp26
tp27
a(lp28
F400.0
aaa(lp29
(g3
g21
(F600.0
Finf
tp30
tp31
a(lp32
F600.0
aaa(lp33
(S'eq2j'
p34
g4
(F200.0
F400.0
tp35
tp36
a(lp37
F200.0
aaa(lp38
(g34
g4
(F400.0
F600.0
tp39
tp40
a(lp41
F200.0
aF400.0
aaa(lp42
(g34
g4
(F600.0
F900.0
tp43
tp44
a(lp45
F200.0
aF400.0
aF600.0
aaa(lp46
(g34
g4
(F900.0
F1200.0
tp47
tp48
a(lp49
F200.0
aF400.0
aF600.0
aF900.0
aaa(lp50
(g34
g4
(F1200.0
Finf
tp51
tp52
a(lp53
F200.0
aF400.0
aF600.0
aF900.0
aaa(lp54
(g34
g21
(F200.0
F400.0
tp55
tp56
a(lp57
F200.0
aaa(lp58
(g34
g21
(F400.0
F600.0
tp59
tp60
a(lp61
F200.0
aF400.0
aaa(lp62
(g34
g21
(F600.0
F900.0
tp63
tp64
a(lp65
F200.0
aF400.0
aF600.0
aaa(lp66
(g34
g21
(F900.0
F1200.0
tp67
tp68
a(lp69
F200.0
aF400.0
aF600.0
aF900.0
aaa(lp70
(g34
g21
(F1200.0
Finf
tp71
tp72
a(lp73
F200.0
aF400.0
aF600.0
aF900.0
aaa(lp74
(g34
S'eq2b'
p75
(F200.0
F400.0
tp76
tp77
a(lp78
F200.0
aaa(lp79
(g34
g75
(F400.0
F600.0
tp80
tp81
a(lp82
F200.0
aF400.0
aaa(lp83
(g34
g75
(F600.0
Finf
tp84
tp85
a(lp86
F200.0
aF400.0
aF600.0
aaa(lp87
(S'eq3j'
p88
g4
(F200.0
F400.0
tp89
tp90
a(lp91
F200.0
aaa(lp92
(g88
g4
(F400.0
F600.0
tp93
tp94
a(lp95
F200.0
aF400.0
aaa(lp96
(g88
g4
(F600.0
F900.0
tp97
tp98
a(lp99
F200.0
aF400.0
aF600.0
aaa(lp100
(g88
g4
(F900.0
F1200.0
tp101
tp102
a(lp103
F200.0
aF400.0
aF600.0
aF900.0
aaa(lp104
(g88
g4
(F1200.0
Finf
tp105
tp106
a(lp107
F200.0
aF400.0
aF600.0
aF900.0
aaa(lp108
(g88
g21
(F200.0
F400.0
tp109
tp110
a(lp111
F200.0
aaa(lp112
(g88
g21
(F400.0
F600.0
tp113
tp114
a(lp115
F200.0
aF400.0
aaa(lp116
(g88
g21
(F600.0
F900.0
tp117
tp118
a(lp119
F200.0
aF400.0
aF600.0
aaa(lp120
(g88
g21
(F900.0
F1200.0
tp121
tp122
a(lp123
F200.0
aF400.0
aF600.0
aF900.0
aaa(lp124
(g88
g21
(F1200.0
Finf
tp125
tp126
a(lp127
F200.0
aF400.0
aF600.0
aF900.0
aaa(lp128
(g88
g75
(F200.0
F400.0
tp129
tp130
a(lp131
F200.0
aaa(lp132
(g88
g75
(F400.0
F600.0
tp133
tp134
a(lp135
F200.0
aF400.0
aaa(lp136
(g88
g75
(F600.0
F900.0
tp137
tp138
a(lp139
F200.0
aF400.0
aF600.0
aaa(lp140
(g88
g75
(F900.0
F1200.0
tp141
tp142
a(lp143
F200.0
aF400.0
aF600.0
aF900.0
aaa(lp144
(g88
g75
(F1200.0
Finf
tp145
tp146
a(lp147
F200.0
aF400.0
aF600.0
aF900.0
aaa(lp148
(g88
S'eq3b'
p149
(F200.0
F400.0
tp150
tp151
a(lp152
F200.0
aaa(lp153
(g88
g149
(F400.0
F600.0
tp154
tp155
a(lp156
F200.0
aF400.0
aaa(lp157
(g88
g149
(F600.0
Finf
tp158
tp159
a(lp160
F200.0
aF400.0
aF600.0
aaa(lp161
(S'eq4j'
p162
g4
(F400.0
F600.0
tp163
tp164
a(lp165
F200.0
aF400.0
aaa(lp166
(g162
g4
(F600.0
F900.0
tp167
tp168
a(lp169
F200.0
aF400.0
aF600.0
aaa(lp170
(g162
g4
(F900.0
F1200.0
tp171
tp172
a(lp173
F200.0
aF400.0
aF600.0
aF900.0
aaa(lp174
(g162
g4
(F1200.0
Finf
tp175
tp176
a(lp177
F200.0
aF400.0
aF600.0
aF900.0
aaa(lp178
(g162
g21
(F400.0
F600.0
tp179
tp180
a(lp181
F200.0
aF400.0
aaa(lp182
(g162
g21
(F600.0
F900.0
tp183
tp184
a(lp185
F200.0
aF400.0
aF600.0
aaa(lp186
(g162
g21
(F900.0
F1200.0
tp187
tp188
a(lp189
F200.0
aF400.0
aF600.0
aF900.0
aaa(lp190
(g162
g21
(F1200.0
Finf
tp191
tp192
a(lp193
F200.0
aF400.0
aF600.0
aF900.0
aaa(lp194
(g162
g75
(F400.0
F600.0
tp195
tp196
a(lp197
F200.0
aF400.0
aaa(lp198
(g162
g75
(F600.0
F900.0
tp199
tp200
a(lp201
F200.0
aF400.0
aF600.0
aaa(lp202
(g162
g75
(F900.0
F1200.0
tp203
tp204
a(lp205
F200.0
aF400.0
aF600.0
aF900.0
aaa(lp206
(g162
g75
(F1200.0
Finf
tp207
tp208
a(lp209
F200.0
aF400.0
aF600.0
aF900.0
aaa(lp210
(g162
g149
(F400.0
F600.0
tp211
tp212
a(lp213
F200.0
aF400.0
aaa(lp214
(g162
g149
(F600.0
F900.0
tp215
tp216
a(lp217
F200.0
aF400.0
aF600.0
aaa(lp218
(g162
g149
(F900.0
Finf
tp219
tp220
a(lp221
F200.0
aF400.0
aF600.0
aF900.0
aaa(lp222
(S'eq5j'
p223
g4
(F400.0
F600.0
tp224
tp225
a(lp226
F200.0
aF400.0
aaa(lp227
(g223
g4
(F600.0
F900.0
tp228
tp229
a(lp230
F200.0
aF400.0
aF600.0
aaa(lp231
(g223
g4
(F900.0
F1200.0
tp232
tp233
a(lp234
F200.0
aF400.0
aF600.0
aaa(lp235
(g223
g4
(F1200.0
Finf
tp236
tp237
a(lp238
F200.0
aF400.0
aF600.0
aF900.0
aaa(lp239
(g223
g21
(F400.0
F600.0
tp240
tp241
a(lp242
F200.0
aF400.0
aaa(lp243
(g223
g21
(F600.0
F900.0
tp244
tp245
a(lp246
F200.0
aF400.0
aF600.0
aaa(lp247
(g223
g21
(F900.0
F1200.0
tp248
tp249
a(lp250
F200.0
aF400.0
aF600.0
aaa(lp251
(g223
g21
(F1200.0
Finf
tp252
tp253
a(lp254
F200.0
aF400.0
aF600.0
aF900.0
aaa(lp255
(g223
g75
(F400.0
F600.0
tp256
tp257
a(lp258
F200.0
aF400.0
aaa(lp259
(g223
g75
(F600.0
F900.0
tp260
tp261
a(lp262
F200.0
aF400.0
aF600.0
aaa(lp263
(g223
g75
(F900.0
F1200.0
tp264
tp265
a(lp266
F200.0
aF400.0
aF600.0
aaa(lp267
(g223
g75
(F1200.0
Finf
tp268
tp269
a(lp270
F200.0
aF400.0
aF600.0
aF900.0
aaa(lp271
(g223
g149
(F400.0
F600.0
tp272
tp273
a(lp274
F200.0
aF400.0
aaa(lp275
(g223
g149
(F600.0
F900.0
tp276
tp277
a(lp278
F200.0
aF400.0
aF600.0
aaa(lp279
(g223
g149
(F900.0
Finf
tp280
tp281
a(lp282
F200.0
aF400.0
aF600.0
aaa(lp283
(g223
S'ge4b'
p284
(F400.0
Finf
tp285
tp286
a(lp287
F200.0
aF400.0
aaa(lp288
(S'ge2a'
p289
g4
(F200.0
F400.0
tp290
tp291
a(lp292
F200.0
aaa(lp293
(g289
g4
(F400.0
F600.0
tp294
tp295
a(lp296
F200.0
aF400.0
aaa(lp297
(g289
g4
(F600.0
F900.0
tp298
tp299
a(lp300
F200.0
aF400.0
aF600.0
aaa(lp301
(g289
g4
(F900.0
Finf
tp302
tp303
a(lp304
F200.0
aF900.0
aaa(lp305
(g289
g21
(F200.0
F400.0
tp306
tp307
a(lp308
F200.0
aaa(lp309
(g289
g21
(F400.0
F600.0
tp310
tp311
a(lp312
F200.0
aF400.0
aaa(lp313
(g289
g21
(F600.0
F900.0
tp314
tp315
a(lp316
F200.0
aF400.0
aF600.0
aaa(lp317
(g289
g21
(F900.0
Finf
tp318
tp319
a(lp320
F200.0
aF900.0
aaa(lp321
(g289
g75
(F200.0
F400.0
tp322
tp323
a(lp324
F200.0
aaa(lp325
(g289
g75
(F400.0
F600.0
tp326
tp327
a(lp328
F200.0
aF400.0
aaa(lp329
(g289
g75
(F600.0
F900.0
tp330
tp331
a(lp332
F200.0
aF400.0
aF600.0
aaa(lp333
(g289
g75
(F900.0
Finf
tp334
tp335
a(lp336
F200.0
aF900.0
aaa(lp337
(g289
g149
(F200.0
F400.0
tp338
tp339
a(lp340
F200.0
aaa(lp341
(g289
g149
(F400.0
F600.0
tp342
tp343
a(lp344
F200.0
aF400.0
aaa(lp345
(g289
g149
(F600.0
Finf
tp346
tp347
a(lp348
F200.0
aF400.0
aF600.0
aaa(lp349
(S'ge6j'
p350
g4
(F400.0
F600.0
tp351
tp352
a(lp353
F200.0
aaa(lp354
(g350
g4
(F600.0
F900.0
tp355
tp356
a(lp357
F200.0
aF400.0
aaa(lp358
(g350
g4
(F900.0
F1200.0
tp359
tp360
a(lp361
F200.0
aF400.0
aF600.0
aaa(lp362
(g350
g4
(F1200.0
Finf
tp363
tp364
a(lp365
F200.0
aF400.0
aF600.0
aF900.0
aaa(lp366
(g350
g21
(F400.0
F600.0
tp367
tp368
a(lp369
F200.0
aaa(lp370
(g350
g21
(F600.0
F900.0
tp371
tp372
a(lp373
F200.0
aF400.0
aaa(lp374
(g350
g21
(F900.0
F1200.0
tp375
tp376
a(lp377
F200.0
aF400.0
aF600.0
aaa(lp378
(g350
g21
(F1200.0
Finf
tp379
tp380
a(lp381
F200.0
aF400.0
aF600.0
aF900.0
aaa(lp382
(g350
g75
(F400.0
F600.0
tp383
tp384
a(lp385
F200.0
aaa(lp386
(g350
g75
(F600.0
F900.0
tp387
tp388
a(lp389
F200.0
aF400.0
aaa(lp390
(g350
g75
(F900.0
F1200.0
tp391
tp392
a(lp393
F200.0
aF400.0
aF600.0
aaa(lp394
(g350
g75
(F1200.0
Finf
tp395
tp396
a(lp397
F200.0
aF400.0
aF600.0
aF900.0
aaa(lp398
(g350
g149
(F400.0
F600.0
tp399
tp400
a(lp401
F200.0
aaa(lp402
(g350
g149
(F600.0
F900.0
tp403
tp404
a(lp405
F200.0
aF400.0
aaa(lp406
(g350
g149
(F900.0
F1200.0
tp407
tp408
a(lp409
F200.0
aF400.0
aF600.0
aaa(lp410
(g350
g149
(F1200.0
Finf
tp411
tp412
a(lp413
F200.0
aF400.0
aF600.0
aF900.0
aaa(lp414
(g350
g284
(F400.0
Finf
tp415
tp416
a(lp417
F200.0
aaatp418
Rp419
.