ccollections
OrderedDict
p0
((lp1
(lp2
(S'eq1j'
p3
S'eq0b'
p4
(I200
I400
tp5
tp6
a(lp7
F200.0
aaa(lp8
(g3
g4
(I400
I600
tp9
tp10
a(lp11
F400.0
aaa(lp12
(g3
g4
(I600
I900
tp13
tp14
a(lp15
F600.0
aaa(lp16
(g3
g4
(I900
Finf
tp17
tp18
a(lp19
F900.0
aaa(lp20
(g3
S'eq1b'
p21
(I200
I400
tp22
tp23
a(lp24
F200.0
aaa(lp25
(g3
g21
(I400
I600
tp26
tp27
a(lp28
F400.0
aaa(lp29
(g3
g21
(I600
I900
tp30
tp31
a(lp32
F600.0
aaa(lp33
(g3
g21
(I900
Finf
tp34
tp35
a(lp36
F900.0
aaa(lp37
(S'eq2j'
p38
g4
(I200
I400
tp39
tp40
a(lp41
F200.0
aaa(lp42
(g38
g4
(I400
I600
tp43
tp44
a(lp45
F200.0
aF400.0
aaa(lp46
(g38
g4
(I600
I900
tp47
tp48
a(lp49
F200.0
aF400.0
aF600.0
aaa(lp50
(g38
g4
(I900
I1200
tp51
tp52
a(lp53
F200.0
aF400.0
aF600.0
aF900.0
aaa(lp54
(g38
g4
(I1200
Finf
tp55
tp56
a(lp57
F200.0
aF400.0
aF600.0
aF900.0
aaa(lp58
(g38
g21
(I200
I400
tp59
tp60
a(lp61
F200.0
aaa(lp62
(g38
g21
(I400
I600
tp63
tp64
a(lp65
F200.0
aF400.0
aaa(lp66
(g38
g21
(I600
I900
tp67
tp68
a(lp69
F200.0
aF400.0
aF600.0
aaa(lp70
(g38
g21
(I900
I1200
tp71
tp72
a(lp73
F200.0
aF400.0
aF600.0
aF900.0
aaa(lp74
(g38
g21
(I1200
Finf
tp75
tp76
a(lp77
F200.0
aF400.0
aF600.0
aF900.0
aaa(lp78
(g38
S'eq2b'
p79
(I200
I400
tp80
tp81
a(lp82
F200.0
aaa(lp83
(g38
g79
(I400
I600
tp84
tp85
a(lp86
F200.0
aF400.0
aaa(lp87
(g38
g79
(I600
I900
tp88
tp89
a(lp90
F200.0
aF400.0
aF600.0
aaa(lp91
(g38
g79
(I900
Finf
tp92
tp93
a(lp94
F200.0
aF400.0
aF600.0
aF900.0
aaa(lp95
(S'eq3j'
p96
g4
(I200
I400
tp97
tp98
a(lp99
F200.0
aaa(lp100
(g96
g4
(I400
I600
tp101
tp102
a(lp103
F200.0
aF400.0
aaa(lp104
(g96
g4
(I600
I900
tp105
tp106
a(lp107
F200.0
aF400.0
aF600.0
aaa(lp108
(g96
g4
(I900
I1200
tp109
tp110
a(lp111
F200.0
aF400.0
aF600.0
aF900.0
aaa(lp112
(g96
g4
(I1200
Finf
tp113
tp114
a(lp115
F200.0
aF400.0
aF600.0
aF900.0
aaa(lp116
(g96
g21
(I200
I400
tp117
tp118
a(lp119
F200.0
aaa(lp120
(g96
g21
(I400
I600
tp121
tp122
a(lp123
F200.0
aF400.0
aaa(lp124
(g96
g21
(I600
I900
tp125
tp126
a(lp127
F200.0
aF400.0
aF600.0
aaa(lp128
(g96
g21
(I900
I1200
tp129
tp130
a(lp131
F200.0
aF400.0
aF600.0
aF900.0
aaa(lp132
(g96
g21
(I1200
Finf
tp133
tp134
a(lp135
F200.0
aF400.0
aF600.0
aF900.0
aaa(lp136
(g96
g79
(I200
I400
tp137
tp138
a(lp139
F200.0
aaa(lp140
(g96
g79
(I400
I600
tp141
tp142
a(lp143
F200.0
aF400.0
aaa(lp144
(g96
g79
(I600
I900
tp145
tp146
a(lp147
F200.0
aF400.0
aF600.0
aaa(lp148
(g96
g79
(I900
I1200
tp149
tp150
a(lp151
F200.0
aF400.0
aF600.0
aF900.0
aaa(lp152
(g96
g79
(I1200
Finf
tp153
tp154
a(lp155
F200.0
aF400.0
aF600.0
aF900.0
aaa(lp156
(g96
S'eq3b'
p157
(I200
I400
tp158
tp159
a(lp160
F200.0
aaa(lp161
(g96
g157
(I400
I600
tp162
tp163
a(lp164
F200.0
aF400.0
aaa(lp165
(g96
g157
(I600
I900
tp166
tp167
a(lp168
F200.0
aF400.0
aF600.0
aaa(lp169
(g96
g157
(I900
Finf
tp170
tp171
a(lp172
F200.0
aF400.0
aF600.0
aF900.0
aaa(lp173
(S'eq4j'
p174
g4
(I400
I600
tp175
tp176
a(lp177
F200.0
aF400.0
aaa(lp178
(g174
g4
(I600
I900
tp179
tp180
a(lp181
F200.0
aF400.0
aF600.0
aaa(lp182
(g174
g4
(I900
I1200
tp183
tp184
a(lp185
F200.0
aF400.0
aF600.0
aF900.0
aaa(lp186
(g174
g4
(I1200
Finf
tp187
tp188
a(lp189
F200.0
aF400.0
aF600.0
aF900.0
aaa(lp190
(g174
g21
(I400
I600
tp191
tp192
a(lp193
F200.0
aF400.0
aaa(lp194
(g174
g21
(I600
I900
tp195
tp196
a(lp197
F200.0
aF400.0
aF600.0
aaa(lp198
(g174
g21
(I900
I1200
tp199
tp200
a(lp201
F200.0
aF400.0
aF600.0
aF900.0
aaa(lp202
(g174
g21
(I1200
Finf
tp203
tp204
a(lp205
F200.0
aF400.0
aF600.0
aF900.0
aaa(lp206
(g174
g79
(I400
I600
tp207
tp208
a(lp209
F200.0
aF400.0
aaa(lp210
(g174
g79
(I600
I900
tp211
tp212
a(lp213
F200.0
aF400.0
aF600.0
aaa(lp214
(g174
g79
(I900
I1200
tp215
tp216
a(lp217
F200.0
aF400.0
aF600.0
aF900.0
aaa(lp218
(g174
g79
(I1200
Finf
tp219
tp220
a(lp221
F200.0
aF400.0
aF600.0
aF900.0
aaa(lp222
(g174
g157
(I400
I600
tp223
tp224
a(lp225
F200.0
aF400.0
aaa(lp226
(g174
g157
(I600
I900
tp227
tp228
a(lp229
F200.0
aF400.0
aF600.0
aaa(lp230
(g174
g157
(I900
Finf
tp231
tp232
a(lp233
F200.0
aF400.0
aF600.0
aF900.0
aaa(lp234
(S'eq5j'
p235
g4
(I400
I600
tp236
tp237
a(lp238
F200.0
aF400.0
aaa(lp239
(g235
g4
(I600
I900
tp240
tp241
a(lp242
F200.0
aF400.0
aF600.0
aaa(lp243
(g235
g4
(I900
I1200
tp244
tp245
a(lp246
F200.0
aF400.0
aF600.0
aF900.0
aaa(lp247
(g235
g4
(I1200
Finf
tp248
tp249
a(lp250
F200.0
aF400.0
aF600.0
aF900.0
aaa(lp251
(g235
g21
(I400
I600
tp252
tp253
a(lp254
F200.0
aF400.0
aaa(lp255
(g235
g21
(I600
I900
tp256
tp257
a(lp258
F200.0
aF400.0
aF600.0
aaa(lp259
(g235
g21
(I900
I1200
tp260
tp261
a(lp262
F200.0
aF400.0
aF600.0
aF900.0
aaa(lp263
(g235
g21
(I1200
Finf
tp264
tp265
a(lp266
F200.0
aF400.0
aF600.0
aF900.0
aaa(lp267
(g235
g79
(I400
I600
tp268
tp269
a(lp270
F200.0
aF400.0
aaa(lp271
(g235
g79
(I600
I900
tp272
tp273
a(lp274
F200.0
aF400.0
aF600.0
aaa(lp275
(g235
g79
(I900
I1200
tp276
tp277
a(lp278
F200.0
aF400.0
aF600.0
aF900.0
aaa(lp279
(g235
g79
(I1200
Finf
tp280
tp281
a(lp282
F200.0
aF400.0
aF600.0
aF900.0
aaa(lp283
(g235
g157
(I400
I600
tp284
tp285
a(lp286
F200.0
aF400.0
aaa(lp287
(g235
g157
(I600
I900
tp288
tp289
a(lp290
F200.0
aF400.0
aF600.0
aaa(lp291
(g235
g157
(I900
Finf
tp292
tp293
a(lp294
F200.0
aF400.0
aF600.0
aF900.0
aaa(lp295
(g235
S'ge4b'
p296
(I400
Finf
tp297
tp298
a(lp299
F200.0
aF400.0
aaa(lp300
(S'ge2a'
p301
g4
(I200
I400
tp302
tp303
a(lp304
F200.0
aaa(lp305
(g301
g4
(I400
I600
tp306
tp307
a(lp308
F200.0
aF400.0
aaa(lp309
(g301
g4
(I600
I900
tp310
tp311
a(lp312
F200.0
aF400.0
aF600.0
aaa(lp313
(g301
g4
(I900
Finf
tp314
tp315
a(lp316
F200.0
aF900.0
aaa(lp317
(g301
g21
(I200
I400
tp318
tp319
a(lp320
F200.0
aaa(lp321
(g301
g21
(I400
I600
tp322
tp323
a(lp324
F200.0
aF400.0
aaa(lp325
(g301
g21
(I600
I900
tp326
tp327
a(lp328
F200.0
aF400.0
aF600.0
aaa(lp329
(g301
g21
(I900
Finf
tp330
tp331
a(lp332
F200.0
aF900.0
aaa(lp333
(g301
g79
(I200
I400
tp334
tp335
a(lp336
F200.0
aaa(lp337
(g301
g79
(I400
I600
tp338
tp339
a(lp340
F200.0
aF400.0
aaa(lp341
(g301
g79
(I600
I900
tp342
tp343
a(lp344
F200.0
aF400.0
aF600.0
aaa(lp345
(g301
g79
(I900
Finf
tp346
tp347
a(lp348
F200.0
aF900.0
aaa(lp349
(g301
g157
(I200
I400
tp350
tp351
a(lp352
F200.0
aaa(lp353
(g301
g157
(I400
I600
tp354
tp355
a(lp356
F200.0
aF400.0
aaa(lp357
(g301
g157
(I600
Finf
tp358
tp359
a(lp360
F200.0
aF400.0
aF600.0
aaa(lp361
(S'ge6j'
p362
g4
(I400
I600
tp363
tp364
a(lp365
F200.0
aF400.0
aaa(lp366
(g362
g4
(I600
I900
tp367
tp368
a(lp369
F200.0
aF400.0
aF600.0
aaa(lp370
(g362
g4
(I900
I1200
tp371
tp372
a(lp373
F200.0
aF400.0
aF600.0
aaa(lp374
(g362
g4
(I1200
Finf
tp375
tp376
a(lp377
F200.0
aF400.0
aF600.0
aF900.0
aaa(lp378
(g362
g21
(I400
I600
tp379
tp380
a(lp381
F200.0
aF400.0
aaa(lp382
(g362
g21
(I600
I900
tp383
tp384
a(lp385
F200.0
aF400.0
aF600.0
aaa(lp386
(g362
g21
(I900
I1200
tp387
tp388
a(lp389
F200.0
aF400.0
aF600.0
aaa(lp390
(g362
g21
(I1200
Finf
tp391
tp392
a(lp393
F200.0
aF400.0
aF600.0
aF900.0
aaa(lp394
(g362
g79
(I400
I600
tp395
tp396
a(lp397
F200.0
aF400.0
aaa(lp398
(g362
g79
(I600
I900
tp399
tp400
a(lp401
F200.0
aF400.0
aF600.0
aaa(lp402
(g362
g79
(I900
I1200
tp403
tp404
a(lp405
F200.0
aF400.0
aF600.0
aaa(lp406
(g362
g79
(I1200
Finf
tp407
tp408
a(lp409
F200.0
aF400.0
aF600.0
aF900.0
aaa(lp410
(g362
g157
(I400
I600
tp411
tp412
a(lp413
F200.0
aF400.0
aaa(lp414
(g362
g157
(I600
I900
tp415
tp416
a(lp417
F200.0
aF400.0
aF600.0
aaa(lp418
(g362
g157
(I900
I1200
tp419
tp420
a(lp421
F200.0
aF400.0
aF600.0
aaa(lp422
(g362
g157
(I1200
Finf
tp423
tp424
a(lp425
F200.0
aF400.0
aF600.0
aF900.0
aaa(lp426
(g362
g296
(I400
Finf
tp427
tp428
a(lp429
F200.0
aF400.0
aaatp430
Rp431
.