ccollections
OrderedDict
p0
((lp1
(lp2
(S'eq1j'
p3
S'eq0b'
p4
(I200
I250
tp5
tp6
a(lp7
F200.0
aaa(lp8
(g3
g4
(I250
I300
tp9
tp10
a(lp11
F250.0
aaa(lp12
(g3
g4
(I300
I350
tp13
tp14
a(lp15
F300.0
aaa(lp16
(g3
g4
(I350
I400
tp17
tp18
a(lp19
F350.0
aaa(lp20
(g3
g4
(I400
I500
tp21
tp22
a(lp23
F400.0
aaa(lp24
(g3
g4
(I500
I600
tp25
tp26
a(lp27
F500.0
aaa(lp28
(g3
g4
(I600
I750
tp29
tp30
a(lp31
F600.0
aaa(lp32
(g3
g4
(I750
I900
tp33
tp34
a(lp35
F750.0
aaa(lp36
(g3
g4
(I900
Finf
tp37
tp38
a(lp39
F900.0
aaa(lp40
(g3
S'eq1b'
p41
(I200
I250
tp42
tp43
a(lp44
F200.0
aaa(lp45
(g3
g41
(I250
I300
tp46
tp47
a(lp48
F250.0
aaa(lp49
(g3
g41
(I300
I350
tp50
tp51
a(lp52
F300.0
aaa(lp53
(g3
g41
(I350
I400
tp54
tp55
a(lp56
F350.0
aaa(lp57
(g3
g41
(I400
I500
tp58
tp59
a(lp60
F400.0
aaa(lp61
(g3
g41
(I500
I600
tp62
tp63
a(lp64
F500.0
aaa(lp65
(g3
g41
(I600
I750
tp66
tp67
a(lp68
F600.0
aaa(lp69
(g3
g41
(I750
I900
tp70
tp71
a(lp72
F750.0
aaa(lp73
(g3
g41
(I900
Finf
tp74
tp75
a(lp76
F900.0
aaa(lp77
(S'eq2j'
p78
g4
(I200
I250
tp79
tp80
a(lp81
F200.0
aaa(lp82
(g78
g4
(I250
I300
tp83
tp84
a(lp85
F200.0
aaa(lp86
(g78
g4
(I300
I350
tp87
tp88
a(lp89
F200.0
aaa(lp90
(g78
g4
(I350
I400
tp91
tp92
a(lp93
F200.0
aaa(lp94
(g78
g4
(I400
I500
tp95
tp96
a(lp97
F200.0
aF400.0
aaa(lp98
(g78
g4
(I500
I600
tp99
tp100
a(lp101
F200.0
aF400.0
aaa(lp102
(g78
g4
(I600
I750
tp103
tp104
a(lp105
F200.0
aF400.0
aF600.0
aaa(lp106
(g78
g4
(I750
I900
tp107
tp108
a(lp109
F200.0
aF400.0
aF600.0
aaa(lp110
(g78
g4
(I900
I1050
tp111
tp112
a(lp113
F200.0
aF400.0
aF600.0
aF900.0
aaa(lp114
(g78
g4
(I1050
I1200
tp115
tp116
a(lp117
F200.0
aF400.0
aF600.0
aF900.0
aaa(lp118
(g78
g4
(I1200
Finf
tp119
tp120
a(lp121
F200.0
aF400.0
aF600.0
aF900.0
aaa(lp122
(g78
g41
(I200
I250
tp123
tp124
a(lp125
F200.0
aaa(lp126
(g78
g41
(I250
I300
tp127
tp128
a(lp129
F200.0
aaa(lp130
(g78
g41
(I300
I350
tp131
tp132
a(lp133
F200.0
aaa(lp134
(g78
g41
(I350
I400
tp135
tp136
a(lp137
F200.0
aaa(lp138
(g78
g41
(I400
I500
tp139
tp140
a(lp141
F200.0
aF400.0
aaa(lp142
(g78
g41
(I500
I600
tp143
tp144
a(lp145
F200.0
aF400.0
aaa(lp146
(g78
g41
(I600
I750
tp147
tp148
a(lp149
F200.0
aF400.0
aF600.0
aaa(lp150
(g78
g41
(I750
I900
tp151
tp152
a(lp153
F200.0
aF400.0
aF600.0
aaa(lp154
(g78
g41
(I900
I1050
tp155
tp156
a(lp157
F200.0
aF400.0
aF600.0
aF900.0
aaa(lp158
(g78
g41
(I1050
I1200
tp159
tp160
a(lp161
F200.0
aF400.0
aF600.0
aF900.0
aaa(lp162
(g78
g41
(I1200
Finf
tp163
tp164
a(lp165
F200.0
aF400.0
aF600.0
aF900.0
aaa(lp166
(g78
S'eq2b'
p167
(I200
I250
tp168
tp169
a(lp170
F200.0
aaa(lp171
(g78
g167
(I250
I300
tp172
tp173
a(lp174
F200.0
aaa(lp175
(g78
g167
(I300
I350
tp176
tp177
a(lp178
F200.0
aaa(lp179
(g78
g167
(I350
I400
tp180
tp181
a(lp182
F200.0
aaa(lp183
(g78
g167
(I400
I500
tp184
tp185
a(lp186
F200.0
aF400.0
aaa(lp187
(g78
g167
(I500
I600
tp188
tp189
a(lp190
F200.0
aF400.0
aaa(lp191
(g78
g167
(I600
I750
tp192
tp193
a(lp194
F200.0
aF400.0
aF600.0
aaa(lp195
(g78
g167
(I750
I900
tp196
tp197
a(lp198
F200.0
aF400.0
aF600.0
aaa(lp199
(g78
g167
(I900
Finf
tp200
tp201
a(lp202
F200.0
aF400.0
aF600.0
aF900.0
aaa(lp203
(S'eq3j'
p204
g4
(I200
I250
tp205
tp206
a(lp207
F200.0
aaa(lp208
(g204
g4
(I250
I300
tp209
tp210
a(lp211
F200.0
aaa(lp212
(g204
g4
(I300
I350
tp213
tp214
a(lp215
F200.0
aaa(lp216
(g204
g4
(I350
I400
tp217
tp218
a(lp219
F200.0
aaa(lp220
(g204
g4
(I400
I500
tp221
tp222
a(lp223
F200.0
aF400.0
aaa(lp224
(g204
g4
(I500
I600
tp225
tp226
a(lp227
F200.0
aF400.0
aaa(lp228
(g204
g4
(I600
I750
tp229
tp230
a(lp231
F200.0
aF400.0
aF600.0
aaa(lp232
(g204
g4
(I750
I900
tp233
tp234
a(lp235
F200.0
aF400.0
aF600.0
aaa(lp236
(g204
g4
(I900
I1050
tp237
tp238
a(lp239
F200.0
aF400.0
aF600.0
aF900.0
aaa(lp240
(g204
g4
(I1050
I1200
tp241
tp242
a(lp243
F200.0
aF400.0
aF600.0
aF900.0
aaa(lp244
(g204
g4
(I1200
Finf
tp245
tp246
a(lp247
F200.0
aF400.0
aF600.0
aF900.0
aaa(lp248
(g204
g41
(I200
I250
tp249
tp250
a(lp251
F200.0
aaa(lp252
(g204
g41
(I250
I300
tp253
tp254
a(lp255
F200.0
aaa(lp256
(g204
g41
(I300
I350
tp257
tp258
a(lp259
F200.0
aaa(lp260
(g204
g41
(I350
I400
tp261
tp262
a(lp263
F200.0
aaa(lp264
(g204
g41
(I400
I500
tp265
tp266
a(lp267
F200.0
aF400.0
aaa(lp268
(g204
g41
(I500
I600
tp269
tp270
a(lp271
F200.0
aF400.0
aaa(lp272
(g204
g41
(I600
I750
tp273
tp274
a(lp275
F200.0
aF400.0
aF600.0
aaa(lp276
(g204
g41
(I750
I900
tp277
tp278
a(lp279
F200.0
aF400.0
aF600.0
aaa(lp280
(g204
g41
(I900
I1050
tp281
tp282
a(lp283
F200.0
aF400.0
aF600.0
aF900.0
aaa(lp284
(g204
g41
(I1050
I1200
tp285
tp286
a(lp287
F200.0
aF400.0
aF600.0
aF900.0
aaa(lp288
(g204
g41
(I1200
Finf
tp289
tp290
a(lp291
F200.0
aF400.0
aF600.0
aF900.0
aaa(lp292
(g204
g167
(I200
I250
tp293
tp294
a(lp295
F200.0
aaa(lp296
(g204
g167
(I250
I300
tp297
tp298
a(lp299
F200.0
aaa(lp300
(g204
g167
(I300
I350
tp301
tp302
a(lp303
F200.0
aaa(lp304
(g204
g167
(I350
I400
tp305
tp306
a(lp307
F200.0
aaa(lp308
(g204
g167
(I400
I500
tp309
tp310
a(lp311
F200.0
aF400.0
aaa(lp312
(g204
g167
(I500
I600
tp313
tp314
a(lp315
F200.0
aF400.0
aaa(lp316
(g204
g167
(I600
I750
tp317
tp318
a(lp319
F200.0
aF400.0
aF600.0
aaa(lp320
(g204
g167
(I750
I900
tp321
tp322
a(lp323
F200.0
aF400.0
aF600.0
aaa(lp324
(g204
g167
(I900
I1050
tp325
tp326
a(lp327
F200.0
aF400.0
aF600.0
aF900.0
aaa(lp328
(g204
g167
(I1050
I1200
tp329
tp330
a(lp331
F200.0
aF400.0
aF600.0
aF900.0
aaa(lp332
(g204
g167
(I1200
Finf
tp333
tp334
a(lp335
F200.0
aF400.0
aF600.0
aF900.0
aaa(lp336
(g204
S'eq3b'
p337
(I200
I250
tp338
tp339
a(lp340
F200.0
aaa(lp341
(g204
g337
(I250
I300
tp342
tp343
a(lp344
F200.0
aaa(lp345
(g204
g337
(I300
I350
tp346
tp347
a(lp348
F200.0
aaa(lp349
(g204
g337
(I350
I400
tp350
tp351
a(lp352
F200.0
aaa(lp353
(g204
g337
(I400
I500
tp354
tp355
a(lp356
F200.0
aF400.0
aaa(lp357
(g204
g337
(I500
I600
tp358
tp359
a(lp360
F200.0
aF400.0
aaa(lp361
(g204
g337
(I600
I750
tp362
tp363
a(lp364
F200.0
aF400.0
aF600.0
aaa(lp365
(g204
g337
(I750
I900
tp366
tp367
a(lp368
F200.0
aF400.0
aF600.0
aaa(lp369
(g204
g337
(I900
Finf
tp370
tp371
a(lp372
F200.0
aF400.0
aF600.0
aF900.0
aaa(lp373
(S'eq4j'
p374
g4
(I400
I500
tp375
tp376
a(lp377
F200.0
aF400.0
aaa(lp378
(g374
g4
(I500
I600
tp379
tp380
a(lp381
F200.0
aF400.0
aaa(lp382
(g374
g4
(I600
I750
tp383
tp384
a(lp385
F200.0
aF400.0
aF600.0
aaa(lp386
(g374
g4
(I750
I900
tp387
tp388
a(lp389
F200.0
aF400.0
aF600.0
aaa(lp390
(g374
g4
(I900
I1050
tp391
tp392
a(lp393
F200.0
aF400.0
aF600.0
aF900.0
aaa(lp394
(g374
g4
(I1050
I1200
tp395
tp396
a(lp397
F200.0
aF400.0
aF600.0
aF900.0
aaa(lp398
(g374
g4
(I1200
Finf
tp399
tp400
a(lp401
F200.0
aF400.0
aF600.0
aF900.0
aaa(lp402
(g374
g41
(I400
I500
tp403
tp404
a(lp405
F200.0
aF400.0
aaa(lp406
(g374
g41
(I500
I600
tp407
tp408
a(lp409
F200.0
aF400.0
aaa(lp410
(g374
g41
(I600
I750
tp411
tp412
a(lp413
F200.0
aF400.0
aF600.0
aaa(lp414
(g374
g41
(I750
I900
tp415
tp416
a(lp417
F200.0
aF400.0
aF600.0
aaa(lp418
(g374
g41
(I900
I1050
tp419
tp420
a(lp421
F200.0
aF400.0
aF600.0
aF900.0
aaa(lp422
(g374
g41
(I1050
I1200
tp423
tp424
a(lp425
F200.0
aF400.0
aF600.0
aF900.0
aaa(lp426
(g374
g41
(I1200
Finf
tp427
tp428
a(lp429
F200.0
aF400.0
aF600.0
aF900.0
aaa(lp430
(g374
g167
(I400
I500
tp431
tp432
a(lp433
F200.0
aF400.0
aaa(lp434
(g374
g167
(I500
I600
tp435
tp436
a(lp437
F200.0
aF400.0
aaa(lp438
(g374
g167
(I600
I750
tp439
tp440
a(lp441
F200.0
aF400.0
aF600.0
aaa(lp442
(g374
g167
(I750
I900
tp443
tp444
a(lp445
F200.0
aF400.0
aF600.0
aaa(lp446
(g374
g167
(I900
I1050
tp447
tp448
a(lp449
F200.0
aF400.0
aF600.0
aF900.0
aaa(lp450
(g374
g167
(I1050
I1200
tp451
tp452
a(lp453
F200.0
aF400.0
aF600.0
aF900.0
aaa(lp454
(g374
g167
(I1200
Finf
tp455
tp456
a(lp457
F200.0
aF400.0
aF600.0
aF900.0
aaa(lp458
(g374
g337
(I400
I500
tp459
tp460
a(lp461
F200.0
aF400.0
aaa(lp462
(g374
g337
(I500
I600
tp463
tp464
a(lp465
F200.0
aF400.0
aaa(lp466
(g374
g337
(I600
I750
tp467
tp468
a(lp469
F200.0
aF400.0
aF600.0
aaa(lp470
(g374
g337
(I750
I900
tp471
tp472
a(lp473
F200.0
aF400.0
aF600.0
aaa(lp474
(g374
g337
(I900
Finf
tp475
tp476
a(lp477
F200.0
aF400.0
aF600.0
aF900.0
aaa(lp478
(S'eq5j'
p479
g4
(I400
I500
tp480
tp481
a(lp482
F200.0
aF400.0
aaa(lp483
(g479
g4
(I500
I600
tp484
tp485
a(lp486
F200.0
aF400.0
aaa(lp487
(g479
g4
(I600
I750
tp488
tp489
a(lp490
F200.0
aF400.0
aF600.0
aaa(lp491
(g479
g4
(I750
I900
tp492
tp493
a(lp494
F200.0
aF400.0
aF600.0
aaa(lp495
(g479
g4
(I900
I1050
tp496
tp497
a(lp498
F200.0
aF400.0
aF600.0
aF900.0
aaa(lp499
(g479
g4
(I1050
I1200
tp500
tp501
a(lp502
F200.0
aF400.0
aF600.0
aF900.0
aaa(lp503
(g479
g4
(I1200
Finf
tp504
tp505
a(lp506
F200.0
aF400.0
aF600.0
aF900.0
aaa(lp507
(g479
g41
(I400
I500
tp508
tp509
a(lp510
F200.0
aF400.0
aaa(lp511
(g479
g41
(I500
I600
tp512
tp513
a(lp514
F200.0
aF400.0
aaa(lp515
(g479
g41
(I600
I750
tp516
tp517
a(lp518
F200.0
aF400.0
aF600.0
aaa(lp519
(g479
g41
(I750
I900
tp520
tp521
a(lp522
F200.0
aF400.0
aF600.0
aaa(lp523
(g479
g41
(I900
I1050
tp524
tp525
a(lp526
F200.0
aF400.0
aF600.0
aF900.0
aaa(lp527
(g479
g41
(I1050
I1200
tp528
tp529
a(lp530
F200.0
aF400.0
aF600.0
aF900.0
aaa(lp531
(g479
g41
(I1200
Finf
tp532
tp533
a(lp534
F200.0
aF400.0
aF600.0
aF900.0
aaa(lp535
(g479
g167
(I400
I500
tp536
tp537
a(lp538
F200.0
aF400.0
aaa(lp539
(g479
g167
(I500
I600
tp540
tp541
a(lp542
F200.0
aF400.0
aaa(lp543
(g479
g167
(I600
I750
tp544
tp545
a(lp546
F200.0
aF400.0
aF600.0
aaa(lp547
(g479
g167
(I750
I900
tp548
tp549
a(lp550
F200.0
aF400.0
aF600.0
aaa(lp551
(g479
g167
(I900
I1050
tp552
tp553
a(lp554
F200.0
aF400.0
aF600.0
aF900.0
aaa(lp555
(g479
g167
(I1050
I1200
tp556
tp557
a(lp558
F200.0
aF400.0
aF600.0
aF900.0
aaa(lp559
(g479
g167
(I1200
Finf
tp560
tp561
a(lp562
F200.0
aF400.0
aF600.0
aF900.0
aaa(lp563
(g479
g337
(I400
I500
tp564
tp565
a(lp566
F200.0
aF400.0
aaa(lp567
(g479
g337
(I500
I600
tp568
tp569
a(lp570
F200.0
aF400.0
aaa(lp571
(g479
g337
(I600
I750
tp572
tp573
a(lp574
F200.0
aF400.0
aF600.0
aaa(lp575
(g479
g337
(I750
I900
tp576
tp577
a(lp578
F200.0
aF400.0
aF600.0
aaa(lp579
(g479
g337
(I900
Finf
tp580
tp581
a(lp582
F200.0
aF400.0
aF600.0
aF900.0
aaa(lp583
(g479
S'ge4b'
p584
(I400
Finf
tp585
tp586
a(lp587
F200.0
aF400.0
aaa(lp588
(S'ge2a'
p589
g4
(I200
I250
tp590
tp591
a(lp592
F200.0
aaa(lp593
(g589
g4
(I250
I300
tp594
tp595
a(lp596
F200.0
aaa(lp597
(g589
g4
(I300
I350
tp598
tp599
a(lp600
F200.0
aaa(lp601
(g589
g4
(I350
I400
tp602
tp603
a(lp604
F200.0
aaa(lp605
(g589
g4
(I400
I500
tp606
tp607
a(lp608
F200.0
aF400.0
aaa(lp609
(g589
g4
(I500
I600
tp610
tp611
a(lp612
F200.0
aF400.0
aaa(lp613
(g589
g4
(I600
I750
tp614
tp615
a(lp616
F200.0
aF400.0
aF600.0
aaa(lp617
(g589
g4
(I750
I900
tp618
tp619
a(lp620
F200.0
aF400.0
aF600.0
aaa(lp621
(g589
g4
(I900
Finf
tp622
tp623
a(lp624
F200.0
aF900.0
aaa(lp625
(g589
g41
(I200
I250
tp626
tp627
a(lp628
F200.0
aaa(lp629
(g589
g41
(I250
I300
tp630
tp631
a(lp632
F200.0
aaa(lp633
(g589
g41
(I300
I350
tp634
tp635
a(lp636
F200.0
aaa(lp637
(g589
g41
(I350
I400
tp638
tp639
a(lp640
F200.0
aaa(lp641
(g589
g41
(I400
I500
tp642
tp643
a(lp644
F200.0
aF400.0
aaa(lp645
(g589
g41
(I500
I600
tp646
tp647
a(lp648
F200.0
aF400.0
aaa(lp649
(g589
g41
(I600
I750
tp650
tp651
a(lp652
F200.0
aF400.0
aF600.0
aaa(lp653
(g589
g41
(I750
I900
tp654
tp655
a(lp656
F200.0
aF400.0
aF600.0
aaa(lp657
(g589
g41
(I900
Finf
tp658
tp659
a(lp660
F200.0
aF900.0
aaa(lp661
(g589
g167
(I200
I250
tp662
tp663
a(lp664
F200.0
aaa(lp665
(g589
g167
(I250
I300
tp666
tp667
a(lp668
F200.0
aaa(lp669
(g589
g167
(I300
I350
tp670
tp671
a(lp672
F200.0
aaa(lp673
(g589
g167
(I350
I400
tp674
tp675
a(lp676
F200.0
aaa(lp677
(g589
g167
(I400
I500
tp678
tp679
a(lp680
F200.0
aF400.0
aaa(lp681
(g589
g167
(I500
I600
tp682
tp683
a(lp684
F200.0
aF400.0
aaa(lp685
(g589
g167
(I600
I750
tp686
tp687
a(lp688
F200.0
aF400.0
aF600.0
aaa(lp689
(g589
g167
(I750
I900
tp690
tp691
a(lp692
F200.0
aF400.0
aF600.0
aaa(lp693
(g589
g167
(I900
Finf
tp694
tp695
a(lp696
F200.0
aF900.0
aaa(lp697
(g589
g337
(I200
I250
tp698
tp699
a(lp700
F200.0
aaa(lp701
(g589
g337
(I250
I300
tp702
tp703
a(lp704
F200.0
aaa(lp705
(g589
g337
(I300
I350
tp706
tp707
a(lp708
F200.0
aaa(lp709
(g589
g337
(I350
I400
tp710
tp711
a(lp712
F200.0
aaa(lp713
(g589
g337
(I400
I500
tp714
tp715
a(lp716
F200.0
aF400.0
aaa(lp717
(g589
g337
(I500
I600
tp718
tp719
a(lp720
F200.0
aF400.0
aaa(lp721
(g589
g337
(I600
Finf
tp722
tp723
a(lp724
F200.0
aF400.0
aF600.0
aaa(lp725
(S'ge6j'
p726
g4
(I400
I500
tp727
tp728
a(lp729
F200.0
aF400.0
aaa(lp730
(g726
g4
(I500
I600
tp731
tp732
a(lp733
F200.0
aF400.0
aaa(lp734
(g726
g4
(I600
I750
tp735
tp736
a(lp737
F200.0
aF400.0
aF600.0
aaa(lp738
(g726
g4
(I750
I900
tp739
tp740
a(lp741
F200.0
aF400.0
aF600.0
aaa(lp742
(g726
g4
(I900
I1050
tp743
tp744
a(lp745
F200.0
aF400.0
aF600.0
aaa(lp746
(g726
g4
(I1050
I1200
tp747
tp748
a(lp749
F200.0
aF400.0
aF600.0
aaa(lp750
(g726
g4
(I1200
Finf
tp751
tp752
a(lp753
F200.0
aF400.0
aF600.0
aF900.0
aaa(lp754
(g726
g41
(I400
I500
tp755
tp756
a(lp757
F200.0
aF400.0
aaa(lp758
(g726
g41
(I500
I600
tp759
tp760
a(lp761
F200.0
aF400.0
aaa(lp762
(g726
g41
(I600
I750
tp763
tp764
a(lp765
F200.0
aF400.0
aF600.0
aaa(lp766
(g726
g41
(I750
I900
tp767
tp768
a(lp769
F200.0
aF400.0
aF600.0
aaa(lp770
(g726
g41
(I900
I1050
tp771
tp772
a(lp773
F200.0
aF400.0
aF600.0
aaa(lp774
(g726
g41
(I1050
I1200
tp775
tp776
a(lp777
F200.0
aF400.0
aF600.0
aaa(lp778
(g726
g41
(I1200
Finf
tp779
tp780
a(lp781
F200.0
aF400.0
aF600.0
aF900.0
aaa(lp782
(g726
g167
(I400
I500
tp783
tp784
a(lp785
F200.0
aF400.0
aaa(lp786
(g726
g167
(I500
I600
tp787
tp788
a(lp789
F200.0
aF400.0
aaa(lp790
(g726
g167
(I600
I750
tp791
tp792
a(lp793
F200.0
aF400.0
aF600.0
aaa(lp794
(g726
g167
(I750
I900
tp795
tp796
a(lp797
F200.0
aF400.0
aF600.0
aaa(lp798
(g726
g167
(I900
I1050
tp799
tp800
a(lp801
F200.0
aF400.0
aF600.0
aaa(lp802
(g726
g167
(I1050
I1200
tp803
tp804
a(lp805
F200.0
aF400.0
aF600.0
aaa(lp806
(g726
g167
(I1200
Finf
tp807
tp808
a(lp809
F200.0
aF400.0
aF600.0
aF900.0
aaa(lp810
(g726
g337
(I400
I500
tp811
tp812
a(lp813
F200.0
aF400.0
aaa(lp814
(g726
g337
(I500
I600
tp815
tp816
a(lp817
F200.0
aF400.0
aaa(lp818
(g726
g337
(I600
I750
tp819
tp820
a(lp821
F200.0
aF400.0
aF600.0
aaa(lp822
(g726
g337
(I750
I900
tp823
tp824
a(lp825
F200.0
aF400.0
aF600.0
aaa(lp826
(g726
g337
(I900
I1050
tp827
tp828
a(lp829
F200.0
aF400.0
aF600.0
aaa(lp830
(g726
g337
(I1050
I1200
tp831
tp832
a(lp833
F200.0
aF400.0
aF600.0
aaa(lp834
(g726
g337
(I1200
Finf
tp835
tp836
a(lp837
F200.0
aF400.0
aF600.0
aF900.0
aaa(lp838
(g726
g584
(I400
Finf
tp839
tp840
a(lp841
F200.0
aaatp842
Rp843
.