(dp0
(S'600'
p1
S'eq3j_eq1b'
p2
tp3
(F-0.00010525148977413856
F0.0002720626850057639
tp4
s(S'400'
p5
S'ge2a_eq1b'
p6
tp7
(F-5.968031538888807e-05
F0.0002714058794240637
tp8
s(S'200'
p9
S'ge2a_eq1b'
p10
tp11
(F0.0002980093820345031
F0.0002992252038329646
tp12
s(S'400'
p13
S'eq5j_eq2b'
p14
tp15
(F-0.000850774950850175
F0.0009693991013466907
tp16
s(S'1200'
p17
S'ge6j_eq0b'
p18
tp19
(F-0.00024530383061309446
F0.0004583357666871901
tp20
s(S'200'
p21
S'eq3j_eq0b'
p22
tp23
(F-0.0001628392779277621
F0.0004341527579465043
tp24
s(S'200'
p25
S'eq1j_eq0b'
p26
tp27
(F-0.0003402375480829889
F0.00010415999883933713
tp28
s(S'600'
p29
S'eq5j_eq0b'
p30
tp31
(F-0.000282810136777778
F0.0003216707928112572
tp32
s(S'1200'
p33
S'eq3j_eq0b'
p34
tp35
(F-0.00016932461166345447
F0.00020133522103414625
tp36
s(S'200'
p37
S'eq3j_eq2b'
p38
tp39
(F0.00021940145793730714
F0.001194839918566809
tp40
s(S'600'
p41
S'eq2j_eq2b'
p42
tp43
(F-0.0002582986093351003
F0.0014275613969985945
tp44
s(S'600'
p45
S'ge6j_eq1b'
p46
tp47
(F0.00012857696689033693
F0.0005216035556078746
tp48
s(S'400'
p49
S'ge6j_eq0b'
p50
tp51
(F-0.0012265310712856747
F0.0012930784472894585
tp52
s(S'200'
p53
S'eq2j_eq2b'
p54
tp55
(F-0.0028003114866475
F0.0023582260968733892
tp56
s(S'600'
p57
S'eq4j_eq2b'
p58
tp59
(F0.00040084704309023556
F0.0004163967687848824
tp60
s(S'900'
p61
S'ge6j_eq0b'
p62
tp63
(F-0.00019438392532669657
F0.00047330729339409294
tp64
s(S'400'
p65
S'eq4j_eq0b'
p66
tp67
(F-0.0005070894910269574
F0.0002646541864088636
tp68
s(S'600'
p69
S'eq2j_eq1b'
p70
tp71
(F0.00022049548481010983
F0.000364360567009378
tp72
s(S'200'
p73
S'ge2a_eq2b'
p74
tp75
(F0.0019861115501698112
F0.0007653907681831607
tp76
s(S'900'
p77
S'eq2j_eq0b'
p78
tp79
(F-0.0007059227785502359
F0.00023565057521979238
tp80
s(S'600'
p81
S'eq1j_eq0b'
p82
tp83
(F0.0018856976893669997
F0.0008020173614866483
tp84
s(S'200'
p85
S'eq3j_eq1b'
p86
tp87
(F-7.13488111523386e-05
F0.000527015750041715
tp88
s(S'1200'
p89
S'eq4j_eq2b'
p90
tp91
(F-0.0013069438438571696
F0.0009649278454047089
tp92
s(S'900'
p93
S'eq4j_eq0b'
p94
tp95
(F-0.00012169762663111205
F0.0002107530403845509
tp96
s(S'900'
p97
S'eq5j_eq2b'
p98
tp99
(F0.0009945268251972672
F0.0005751997814455595
tp100
s(S'400'
p101
S'ge6j_eq1b'
p102
tp103
(F0.0006883852540980895
F0.0012091089244685715
tp104
s(S'1200'
p105
S'eq4j_eq1b'
p106
tp107
(F0.0011728862793027178
F0.00024420450617265027
tp108
s(S'1200'
p109
S'ge6j_eq1b'
p110
tp111
(F-9.09207667108558e-05
F0.00041018564383917683
tp112
s(S'900'
p113
S'eq5j_eq0b'
p114
tp115
(F-0.0003227277318152283
F0.00032464030444601805
tp116
s(S'900'
p117
S'eq3j_eq1b'
p118
tp119
(F-0.0001261804727012844
F0.00042733273582184345
tp120
s(S'1200'
p121
S'eq4j_eq0b'
p122
tp123
(F-0.00032413373324974293
F0.0002442367911209761
tp124
s(S'600'
p125
S'eq2j_eq0b'
p126
tp127
(F-0.000589764817123431
F0.00014379687932832702
tp128
s(S'1200'
p129
S'eq5j_eq0b'
p130
tp131
(F-0.0003397986551038762
F0.00030649439552037777
tp132
s(S'400'
p133
S'eq1j_eq1b'
p134
tp135
(F-0.0007114362564625276
F0.001977074658197575
tp136
s(S'600'
p137
S'eq1j_eq1b'
p138
tp139
(F0.005659020645473772
F0.002788450904943063
tp140
s(S'200'
p141
S'eq1j_eq1b'
p142
tp143
(F-0.0001476801588993215
F0.0005379096367021385
tp144
s(S'900'
p145
S'eq3j_eq0b'
p146
tp147
(F-0.00047814109486055134
F0.0001875043421145639
tp148
s(S'600'
p149
S'ge2a_eq0b'
p150
tp151
(F-0.0005791542315045917
F0.00024127937402662267
tp152
s(S'1200'
p153
S'eq3j_eq1b'
p154
tp155
(F-0.00063161505535278
F0.0004952137659684011
tp156
s(S'900'
p157
S'eq5j_eq1b'
p158
tp159
(F0.0002512846100303223
F0.0004102032830169619
tp160
s(S'600'
p161
S'ge6j_eq0b'
p162
tp163
(F5.679045825252027e-05
F0.00048698541826021347
tp164
s(S'600'
p165
S'eq3j_eq2b'
p166
tp167
(F0.00011934885252953831
F0.0004797965652818398
tp168
s(S'600'
p169
S'eq4j_eq1b'
p170
tp171
(F0.00031371288148501764
F0.0002444519858903482
tp172
s(S'1200'
p173
S'eq5j_eq1b'
p174
tp175
(F0.0004946588883549818
F0.00031761334775768507
tp176
s(S'200'
p177
S'eq2j_eq1b'
p178
tp179
(F0.0005720469726134825
F0.0005945245897039653
tp180
s(S'900'
p181
S'ge6j_eq3b'
p182
tp183
(F0.0017321290968433933
F0.0014100982262868211
tp184
s(S'400'
p185
S'eq3j_eq1b'
p186
tp187
(F0.0007337859100385868
F0.00027816707687491893
tp188
s(S'600'
p189
S'eq5j_eq1b'
p190
tp191
(F0.0009736320277488886
F0.0002929620076962125
tp192
s(S'400'
p193
S'eq1j_eq0b'
p194
tp195
(F-0.00015275096357592055
F0.0004274234473248262
tp196
s(S'600'
p197
S'eq3j_eq0b'
p198
tp199
(F-0.0003191115843670378
F0.00013624295746526155
tp200
s(S'400'
p201
S'eq4j_eq1b'
p202
tp203
(F0.0009008898343875749
F0.0003070187387795853
tp204
s(S'600'
p205
S'ge2a_eq1b'
p206
tp207
(F0.00047303426431159756
F0.000362413397012637
tp208
s(S'1200'
p209
S'ge6j_eq2b'
p210
tp211
(F0.0005963016876418675
F0.000559630250579167
tp212
s(S'400'
p213
S'eq2j_eq1b'
p214
tp215
(F7.592543375145588e-05
F0.00040059341308328056
tp216
s(S'400'
p217
S'eq5j_eq0b'
p218
tp219
(F-0.000643297031868606
F0.0006849032677727074
tp220
s(S'900'
p221
S'eq4j_eq1b'
p222
tp223
(F5.7197456465082896e-05
F0.0003647141801328205
tp224
s(S'1200'
p225
S'eq2j_eq1b'
p226
tp227
(F-0.0005259564320085341
F0.0009755295892114671
tp228
s(S'400'
p229
S'eq2j_eq0b'
p230
tp231
(F-0.000750090760070099
F0.000171789203673417
tp232
s(S'400'
p233
S'eq3j_eq2b'
p234
tp235
(F0.0008309399570037845
F0.000567858901160484
tp236
s(S'600'
p237
S'ge6j_eq2b'
p238
tp239
(F0.0002931569775873055
F0.0006313419840598689
tp240
s(S'900'
p241
S'eq1j_eq0b'
p242
tp243
(F-0.0006177088650202583
F0.0011878219646135058
tp244
s(S'200'
p245
S'eq2j_eq0b'
p246
tp247
(F0.00015938485153010884
F0.00026560364694605543
tp248
s(S'400'
p249
S'ge2a_eq2b'
p250
tp251
(F0.0013486720213328196
F0.0004747551710670428
tp252
s(S'1200'
p253
S'eq2j_eq0b'
p254
tp255
(F-0.0006711905559586701
F0.0002521417799144013
tp256
s(S'900'
p257
S'ge2a_eq1b'
p258
tp259
(F-6.434278962366702e-05
F0.001185522045001875
tp260
s(S'900'
p261
S'ge2a_eq0b'
p262
tp263
(F0.0007955171260721448
F0.0006482294130423331
tp264
s(S'400'
p265
S'eq5j_eq1b'
p266
tp267
(F3.619117399922267e-05
F0.0006968413354435654
tp268
s(S'200'
p269
S'ge2a_eq0b'
p270
tp271
(F-0.00022626377096657269
F0.00014338704178523676
tp272
s(S'900'
p273
S'ge6j_eq1b'
p274
tp275
(F0.00080165225947601
F0.00039589489032960945
tp276
s(S'600'
p277
S'eq5j_eq2b'
p278
tp279
(F0.00031765050460180744
F0.0004975940247408939
tp280
s(S'600'
p281
S'eq5j_eq3b'
p282
tp283
(F-0.002817023649524353
F0.0019007613126461043
tp284
s(S'900'
p285
S'eq4j_eq2b'
p286
tp287
(F-0.0004716484726087766
F0.0006225325608774715
tp288
s(S'400'
p289
S'eq4j_eq2b'
p290
tp291
(F0.0009773102364198927
F0.0006131046673236717
tp292
s(S'1200'
p293
S'eq5j_eq2b'
p294
tp295
(F0.002017840070720714
F0.0011784409795798645
tp296
s(S'900'
p297
S'ge6j_eq2b'
p298
tp299
(F0.001258219435334329
F0.00046018188593481557
tp300
s(S'600'
p301
S'eq4j_eq0b'
p302
tp303
(F-0.0001997262926795862
F0.00017213589788925288
tp304
s(S'400'
p305
S'ge2a_eq0b'
p306
tp307
(F-0.00024928510037311447
F0.00014851499509407895
tp308
s(S'900'
p309
S'eq2j_eq1b'
p310
tp311
(F0.00016105630898193002
F0.0004982796893751931
tp312
s(S'600'
p313
S'ge2a_eq2b'
p314
tp315
(F0.0005612156894691522
F0.0005939455319285136
tp316
s(S'400'
p317
S'eq2j_eq2b'
p318
tp319
(F0.0016995690432189403
F0.0012202977176161423
tp320
s(S'400'
p321
S'eq3j_eq0b'
p322
tp323
(F-0.0003517394537063123
F0.00019512208323857472
tp324
s.