(dp0
(S'eq3j'
p1
S'eq0b'
p2
I400
tp3
F0.39983143929290554
s(S'eq2j'
p4
S'eq1b'
p5
I400
tp6
F-0.2111981577676771
s(S'eq4j'
p7
S'eq1b'
p8
I600
tp9
F-0.8895224643088695
s(S'ge6j'
p10
S'eq2b'
p11
I400
tp12
F-1.1670100623915218
s(S'eq5j'
p13
S'eq0b'
p14
I400
tp15
F-0.020331010649934457
s(S'eq4j'
p16
S'eq0b'
p17
I600
tp18
F0.9852475601897394
s(g1
g2
I1200
tp19
F-0.4006967528057808
s(g13
g14
I1200
tp20
F-0.46471077308597264
s(g16
g17
I900
tp21
F1.5548783285955665
s(S'eq1j'
p22
S'eq0b'
p23
I200
tp24
F1.0549253086558983
s(S'ge2a'
p25
S'eq0b'
p26
I900
tp27
F0.3834226589936117
s(S'eq3j'
p28
S'eq3b'
p29
I600
tp30
F1.9230308326035754
s(S'ge6j'
p31
S'eq1b'
p32
I600
tp33
F0.4245272754104076
s(S'ge2a'
p34
S'eq3b'
p35
I600
tp36
F-0.8198696101909619
s(S'eq5j'
p37
S'ge4b'
p38
I400
tp39
F0.5199504982342069
s(S'eq4j'
p40
S'eq3b'
p41
I400
tp42
F-1.0173203133275104
s(g1
g2
I900
tp43
F0.3847642269258345
s(S'eq4j'
p44
S'eq2b'
p45
I900
tp46
F1.549400621966421
s(g16
g17
I1200
tp47
F-0.45209808629882947
s(S'eq1j'
p48
S'eq1b'
p49
I200
tp50
F1.2155272962036976
s(S'ge6j'
p51
S'eq0b'
p52
I900
tp53
F0.8566174826146367
s(S'ge2a'
p54
S'eq2b'
p55
I900
tp56
F-0.8736937208151244
s(g7
g8
I1200
tp57
F-0.18823655227459604
s(S'eq2j'
p58
S'eq0b'
p59
I200
tp60
F0.31911794553137185
s(g54
g55
I600
tp61
F-0.23294875208144356
s(g16
g17
I400
tp62
F0.5074551269250742
s(g10
g11
I600
tp63
F0.7999698656772312
s(S'ge2a'
p64
S'eq1b'
p65
I400
tp66
F-0.7037503080510461
s(g25
g26
I400
tp67
F0.06932010330949442
s(g1
g2
I600
tp68
F0.7581838521867222
s(g7
g8
I400
tp69
F0.1746029058571998
s(g44
g45
I1200
tp70
F-0.868370891586381
s(g25
g26
I600
tp71
F-0.14101824106223898
s(g10
g11
I900
tp72
F-1.6537463291988943
s(S'eq3j'
p73
S'eq2b'
p74
I400
tp75
F0.3597855928000036
s(g4
g5
I200
tp76
F-0.023607944903638704
s(g25
g26
I200
tp77
F0.6462811868300349
s(S'eq3j'
p78
S'eq1b'
p79
I200
tp80
F0.43549555221571157
s(g44
g45
I400
tp81
F0.7201812597304924
s(g44
g45
I600
tp82
F0.6401129131941707
s(g73
g74
I1200
tp83
F-0.5007821854952242
s(S'eq2j'
p84
S'eq2b'
p85
I200
tp86
F0.06534270544848216
s(g51
g52
I600
tp87
F-0.3500839256749942
s(g40
g41
I600
tp88
F0.39113838499613285
s(g84
g85
I400
tp89
F0.5444029388100077
s(g64
g65
I900
tp90
F-0.693863174802167
s(g31
g32
I900
tp91
F-0.2597091747883344
s(S'eq5j'
p92
S'eq2b'
p93
I900
tp94
F-1.5157401777054822
s(g58
g59
I1200
tp95
F0.2294974236955705
s(g54
g55
I400
tp96
F0.24002572555562446
s(g28
g29
I200
tp97
F0.42184202644248975
s(S'eq5j'
p98
S'eq1b'
p99
I400
tp100
F0.09821800951890677
s(g28
g29
I400
tp101
F1.2980503021060599
s(g58
g59
I400
tp102
F0.4429370107487853
s(g78
g79
I1200
tp103
F0.20702525381280773
s(g13
g14
I600
tp104
F-1.2205933147570698
s(S'ge6j'
p105
S'eq3b'
p106
I900
tp107
F0.1524085237660668
s(g31
g32
I1200
tp108
F0.9727420088658107
s(g7
g8
I900
tp109
F1.6640164486678404
s(g98
g99
I1200
tp110
F0.19769271746286804
s(g73
g74
I900
tp111
F-0.04486230549451257
s(g78
g79
I400
tp112
F0.06819352575038137
s(g22
g23
I400
tp113
F0.9111416500931169
s(g31
g32
I400
tp114
F-0.8728383865194399
s(g22
g23
I600
tp115
F0.11474050449846927
s(g34
g35
I400
tp116
F-0.43713646821834384
s(g48
g49
I600
tp117
F-0.30207998949612913
s(g34
g35
I200
tp118
F1.0386582891757379
s(g98
g99
I900
tp119
F-1.4403571285170491
s(S'eq5j'
p120
S'eq3b'
p121
I900
tp122
F-2.2968182385745037
s(g92
g93
I400
tp123
F0.18487534341292788
s(g4
g5
I900
tp124
F-0.46287332404882114
s(g1
g2
I200
tp125
F0.010240179763522544
s(g98
g99
I600
tp126
F0.8059973822449945
s(g78
g79
I900
tp127
F-0.7942078437052706
s(g58
g59
I600
tp128
F-0.31969757037590196
s(g22
g23
I900
tp129
F-0.5342856194590391
s(g54
g55
I200
tp130
F0.21490823470787165
s(g4
g5
I600
tp131
F-0.15038532924715434
s(g73
g74
I200
tp132
F0.5820688831906682
s(g92
g93
I1200
tp133
F0.678342585061913
s(g58
g59
I900
tp134
F0.33304358447933385
s(g105
g106
I600
tp135
F2.443063350900124
s(g73
g74
I600
tp136
F-0.03439751149470972
s(g78
g79
I600
tp137
F1.0077219657667371
s(g13
g14
I900
tp138
F0.5171967241590015
s(g51
g52
I1200
tp139
F-0.5933074873882529
s(g120
g121
I400
tp140
F-1.1155984534621513
s(g105
g106
I1200
tp141
F0.8429233601374205
s(g120
g121
I600
tp142
F0.1556606179715992
s(g105
g106
I400
tp143
F1.5366816973255328
s(g84
g85
I600
tp144
F-0.6849976206389421
s(g51
g52
I400
tp145
F1.4107269254267447
s(g48
g49
I400
tp146
F-0.6894401022867076
s(g4
g5
I1200
tp147
F0.7018930666830719
s(g10
g11
I1200
tp148
F-0.7687073918628656
s(g64
g65
I200
tp149
F0.3058047913451875
s(S'ge6j'
p150
S'ge4b'
p151
I400
tp152
F1.1797351702931431
s(g40
g41
I900
tp153
F-1.7292504363187675
s(g92
g93
I600
tp154
F-0.5188325935731157
s(g64
g65
I600
tp155
F-1.2466675117203057
s.