(lp0
F1.0549253086558983
aF0.9111416500931169
aF0.11474050449846927
aF-0.5342856194590391
aF1.2155272962036976
aF-0.6894401022867076
aF-0.30207998949612913
aF0.2294974236955705
aF0.31911794553137185
aF0.4429370107487853
aF-0.31969757037590196
aF0.33304358447933385
aF0.7018930666830719
aF-0.023607944903638704
aF-0.2111981577676771
aF-0.15038532924715434
aF-0.46287332404882114
aF0.06534270544848216
aF0.5444029388100077
aF-0.6849976206389421
aF-0.4006967528057808
aF0.010240179763522544
aF0.39983143929290554
aF0.7581838521867222
aF0.3847642269258345
aF0.20702525381280773
aF0.43549555221571157
aF0.06819352575038137
aF1.0077219657667371
aF-0.7942078437052706
aF-0.5007821854952242
aF0.5820688831906682
aF0.3597855928000036
aF-0.03439751149470972
aF-0.04486230549451257
aF0.42184202644248975
aF1.2980503021060599
aF1.9230308326035754
aF-0.45209808629882947
aF0.5074551269250742
aF0.9852475601897394
aF1.5548783285955665
aF-0.18823655227459604
aF0.1746029058571998
aF-0.8895224643088695
aF1.6640164486678404
aF-0.868370891586381
aF0.7201812597304924
aF0.6401129131941707
aF1.549400621966421
aF-1.0173203133275104
aF0.39113838499613285
aF-1.7292504363187675
aF-0.46471077308597264
aF-0.020331010649934457
aF-1.2205933147570698
aF0.5171967241590015
aF0.19769271746286804
aF0.09821800951890677
aF0.8059973822449945
aF-1.4403571285170491
aF0.678342585061913
aF0.18487534341292788
aF-0.5188325935731157
aF-1.5157401777054822
aF-1.1155984534621513
aF0.1556606179715992
aF-2.2968182385745037
aF0.5199504982342069
aF0.6462811868300349
aF0.06932010330949442
aF-0.14101824106223898
aF0.3834226589936117
aF0.3058047913451875
aF-0.7037503080510461
aF-1.2466675117203057
aF-0.693863174802167
aF0.21490823470787165
aF0.24002572555562446
aF-0.23294875208144356
aF-0.8736937208151244
aF1.0386582891757379
aF-0.43713646821834384
aF-0.8198696101909619
aF-0.5933074873882529
aF1.4107269254267447
aF-0.3500839256749942
aF0.8566174826146367
aF0.9727420088658107
aF-0.8728383865194399
aF0.4245272754104076
aF-0.2597091747883344
aF-0.7687073918628656
aF-1.1670100623915218
aF0.7999698656772312
aF-1.6537463291988943
aF0.8429233601374205
aF1.5366816973255328
aF2.443063350900124
aF0.1524085237660668
aF1.1797351702931431
a.