(dp0
(S'0'
p1
S'eq1j_All'
p2
tp3
(F0.00018612305671261709
F0.0009079762244441625
tp4
s(g1
S'eq5j_All'
p5
tp6
(F5.263366874391773e-05
F0.00011916645119958158
tp7
s(g1
S'eq2j_All'
p8
tp9
(F-0.0005924779924510876
F8.616246118311327e-05
tp10
s(g1
S'eq4j_All'
p11
tp12
(F-1.0950661974998277e-05
F8.492520961000255e-05
tp13
s(g1
S'ge2a_All'
p14
tp15
(F-0.00020987639387246015
F0.00011837016213540885
tp16
s(g1
S'eq3j_All'
p17
tp18
(F-0.0002583239402572657
F7.563293685423911e-05
tp19
s(g1
S'ge6j_All'
p20
tp21
(F0.00014108998295081498
F0.00015953427795938058
tp22
s.