ccollections
OrderedDict
p0
((lp1
(lp2
(S'eq1j'
p3
S'eq0b'
p4
(I200
I250
tp5
tp6
a(lp7
F200.0
aaa(lp8
(g3
g4
(I250
I300
tp9
tp10
a(lp11
F250.0
aaa(lp12
(g3
g4
(I300
I350
tp13
tp14
a(lp15
F300.0
aaa(lp16
(g3
g4
(I350
I400
tp17
tp18
a(lp19
F350.0
aaa(lp20
(g3
g4
(I400
I500
tp21
tp22
a(lp23
F400.0
aaa(lp24
(g3
g4
(I500
I600
tp25
tp26
a(lp27
F500.0
aaa(lp28
(g3
g4
(I600
I750
tp29
tp30
a(lp31
F600.0
aF700.0
aaa(lp32
(g3
g4
(I750
I900
tp33
tp34
a(lp35
F750.0
aaa(lp36
(g3
g4
(I900
Finf
tp37
tp38
a(lp39
F900.0
aF1000.0
aF1200.0
aF1300.0
aF1400.0
aaa(lp40
(g3
S'eq1b'
p41
(I200
I250
tp42
tp43
a(lp44
F200.0
aaa(lp45
(g3
g41
(I250
I300
tp46
tp47
a(lp48
F250.0
aaa(lp49
(g3
g41
(I300
I350
tp50
tp51
a(lp52
F300.0
aaa(lp53
(g3
g41
(I350
I400
tp54
tp55
a(lp56
F350.0
aaa(lp57
(g3
g41
(I400
I500
tp58
tp59
a(lp60
F400.0
aaa(lp61
(g3
g41
(I500
I600
tp62
tp63
a(lp64
F500.0
aaa(lp65
(g3
g41
(I600
I750
tp66
tp67
a(lp68
F600.0
aF700.0
aaa(lp69
(g3
g41
(I750
I900
tp70
tp71
a(lp72
F750.0
aaa(lp73
(g3
g41
(I900
Finf
tp74
tp75
a(lp76
F900.0
aF1000.0
aF1200.0
aF1300.0
aF1400.0
aaa(lp77
(g3
S'ge0b'
p78
(I200
I250
tp79
tp80
a(lp81
F200.0
aaa(lp82
(g3
g78
(I250
I300
tp83
tp84
a(lp85
F250.0
aaa(lp86
(g3
g78
(I300
I350
tp87
tp88
a(lp89
F300.0
aaa(lp90
(g3
g78
(I350
I400
tp91
tp92
a(lp93
F350.0
aaa(lp94
(g3
g78
(I400
I500
tp95
tp96
a(lp97
F400.0
aaa(lp98
(g3
g78
(I500
I600
tp99
tp100
a(lp101
F500.0
aaa(lp102
(g3
g78
(I600
I750
tp103
tp104
a(lp105
F600.0
aF700.0
aaa(lp106
(g3
g78
(I750
I900
tp107
tp108
a(lp109
F750.0
aaa(lp110
(g3
g78
(I900
Finf
tp111
tp112
a(lp113
F900.0
aF1000.0
aF1200.0
aF1300.0
aF1400.0
aaa(lp114
(S'eq2j'
p115
g4
(I200
I250
tp116
tp117
a(lp118
F200.0
aaa(lp119
(g115
g4
(I250
I300
tp120
tp121
a(lp122
F200.0
aaa(lp123
(g115
g4
(I300
I350
tp124
tp125
a(lp126
F200.0
aF300.0
aaa(lp127
(g115
g4
(I350
I400
tp128
tp129
a(lp130
F200.0
aF300.0
aaa(lp131
(g115
g4
(I400
I500
tp132
tp133
a(lp134
F200.0
aF300.0
aF400.0
aaa(lp135
(g115
g4
(I500
I600
tp136
tp137
a(lp138
F200.0
aF300.0
aF400.0
aF500.0
aaa(lp139
(g115
g4
(I600
I750
tp140
tp141
a(lp142
F200.0
aF300.0
aF400.0
aF500.0
aF600.0
aF700.0
aaa(lp143
(g115
g4
(I750
I900
tp144
tp145
a(lp146
F200.0
aF400.0
aF500.0
aF600.0
aF700.0
aF800.0
aaa(lp147
(g115
g4
(I900
I1050
tp148
tp149
a(lp150
F200.0
aF300.0
aF400.0
aF500.0
aF600.0
aF700.0
aF800.0
aF900.0
aF1000.0
aaa(lp151
(g115
g4
(I1050
I1200
tp152
tp153
a(lp154
F200.0
aF300.0
aF400.0
aF500.0
aF700.0
aF800.0
aF900.0
aF1000.0
aF1100.0
aaa(lp155
(g115
g4
(I1200
Finf
tp156
tp157
a(lp158
F200.0
aF400.0
aF500.0
aF600.0
aF900.0
aF1500.0
aaa(lp159
(g115
g41
(I200
I250
tp160
tp161
a(lp162
F200.0
aaa(lp163
(g115
g41
(I250
I300
tp164
tp165
a(lp166
F200.0
aaa(lp167
(g115
g41
(I300
I350
tp168
tp169
a(lp170
F200.0
aF300.0
aaa(lp171
(g115
g41
(I350
I400
tp172
tp173
a(lp174
F200.0
aF300.0
aaa(lp175
(g115
g41
(I400
I500
tp176
tp177
a(lp178
F200.0
aF300.0
aF400.0
aaa(lp179
(g115
g41
(I500
I600
tp180
tp181
a(lp182
F200.0
aF300.0
aF400.0
aF500.0
aaa(lp183
(g115
g41
(I600
I750
tp184
tp185
a(lp186
F200.0
aF300.0
aF400.0
aF500.0
aF600.0
aF700.0
aaa(lp187
(g115
g41
(I750
I900
tp188
tp189
a(lp190
F200.0
aF400.0
aF500.0
aF600.0
aF700.0
aF800.0
aaa(lp191
(g115
g41
(I900
I1050
tp192
tp193
a(lp194
F200.0
aF300.0
aF400.0
aF500.0
aF600.0
aF700.0
aF800.0
aF900.0
aF1000.0
aaa(lp195
(g115
g41
(I1050
I1200
tp196
tp197
a(lp198
F200.0
aF300.0
aF400.0
aF500.0
aF700.0
aF800.0
aF900.0
aF1000.0
aF1100.0
aaa(lp199
(g115
g41
(I1200
Finf
tp200
tp201
a(lp202
F200.0
aF400.0
aF500.0
aF600.0
aF900.0
aF1500.0
aaa(lp203
(g115
S'eq2b'
p204
(I200
I250
tp205
tp206
a(lp207
F200.0
aaa(lp208
(g115
g204
(I250
I300
tp209
tp210
a(lp211
F200.0
aaa(lp212
(g115
g204
(I300
I350
tp213
tp214
a(lp215
F200.0
aF300.0
aaa(lp216
(g115
g204
(I350
I400
tp217
tp218
a(lp219
F200.0
aF300.0
aaa(lp220
(g115
g204
(I400
I500
tp221
tp222
a(lp223
F200.0
aF300.0
aF400.0
aaa(lp224
(g115
g204
(I500
I600
tp225
tp226
a(lp227
F200.0
aF300.0
aF400.0
aF500.0
aaa(lp228
(g115
g204
(I600
I750
tp229
tp230
a(lp231
F200.0
aF300.0
aF400.0
aF500.0
aF600.0
aF700.0
aaa(lp232
(g115
g204
(I750
I900
tp233
tp234
a(lp235
F200.0
aF400.0
aF500.0
aF600.0
aF700.0
aF800.0
aaa(lp236
(g115
g204
(I900
Finf
tp237
tp238
a(lp239
F200.0
aF300.0
aF400.0
aF500.0
aF600.0
aF700.0
aF800.0
aF900.0
aF1000.0
aaa(lp240
(g115
g78
(I200
I250
tp241
tp242
a(lp243
F200.0
aaa(lp244
(g115
g78
(I250
I300
tp245
tp246
a(lp247
F200.0
aaa(lp248
(g115
g78
(I300
I350
tp249
tp250
a(lp251
F200.0
aF300.0
aaa(lp252
(g115
g78
(I350
I400
tp253
tp254
a(lp255
F200.0
aF300.0
aaa(lp256
(g115
g78
(I400
I500
tp257
tp258
a(lp259
F200.0
aF300.0
aF400.0
aaa(lp260
(g115
g78
(I500
I600
tp261
tp262
a(lp263
F200.0
aF300.0
aF400.0
aF500.0
aaa(lp264
(g115
g78
(I600
I750
tp265
tp266
a(lp267
F200.0
aF300.0
aF400.0
aF500.0
aF600.0
aF700.0
aaa(lp268
(g115
g78
(I750
I900
tp269
tp270
a(lp271
F200.0
aF400.0
aF500.0
aF600.0
aF700.0
aF800.0
aaa(lp272
(g115
g78
(I900
I1050
tp273
tp274
a(lp275
F200.0
aF300.0
aF400.0
aF500.0
aF600.0
aF700.0
aF800.0
aF900.0
aF1000.0
aaa(lp276
(g115
g78
(I1050
I1200
tp277
tp278
a(lp279
F200.0
aF300.0
aF400.0
aF500.0
aF700.0
aF800.0
aF900.0
aF1000.0
aF1100.0
aaa(lp280
(g115
g78
(I1200
Finf
tp281
tp282
a(lp283
F200.0
aF400.0
aF500.0
aF600.0
aF900.0
aF1500.0
aaa(lp284
(S'eq3j'
p285
g4
(I200
I250
tp286
tp287
a(lp288
F200.0
aaa(lp289
(g285
g4
(I250
I300
tp290
tp291
a(lp292
F200.0
aaa(lp293
(g285
g4
(I300
I350
tp294
tp295
a(lp296
F200.0
aF300.0
aaa(lp297
(g285
g4
(I350
I400
tp298
tp299
a(lp300
F200.0
aF300.0
aaa(lp301
(g285
g4
(I400
I500
tp302
tp303
a(lp304
F200.0
aF300.0
aF400.0
aaa(lp305
(g285
g4
(I500
I600
tp306
tp307
a(lp308
F200.0
aF300.0
aF400.0
aF500.0
aaa(lp309
(g285
g4
(I600
I750
tp310
tp311
a(lp312
F200.0
aF300.0
aF400.0
aF500.0
aF600.0
aF700.0
aaa(lp313
(g285
g4
(I750
I900
tp314
tp315
a(lp316
F200.0
aF300.0
aF400.0
aF500.0
aF600.0
aF700.0
aF800.0
aaa(lp317
(g285
g4
(I900
I1050
tp318
tp319
a(lp320
F200.0
aF300.0
aF400.0
aF500.0
aF600.0
aF700.0
aF800.0
aF900.0
aaa(lp321
(g285
g4
(I1050
I1200
tp322
tp323
a(lp324
F200.0
aF300.0
aF400.0
aF500.0
aF600.0
aF700.0
aF800.0
aF900.0
aaa(lp325
(g285
g4
(I1200
Finf
tp326
tp327
a(lp328
F200.0
aF400.0
aF500.0
aF700.0
aF800.0
aF900.0
aF1100.0
aF1200.0
aF1300.0
aaa(lp329
(g285
g41
(I200
I250
tp330
tp331
a(lp332
F200.0
aaa(lp333
(g285
g41
(I250
I300
tp334
tp335
a(lp336
F200.0
aaa(lp337
(g285
g41
(I300
I350
tp338
tp339
a(lp340
F200.0
aF300.0
aaa(lp341
(g285
g41
(I350
I400
tp342
tp343
a(lp344
F200.0
aF300.0
aaa(lp345
(g285
g41
(I400
I500
tp346
tp347
a(lp348
F200.0
aF300.0
aF400.0
aaa(lp349
(g285
g41
(I500
I600
tp350
tp351
a(lp352
F200.0
aF300.0
aF400.0
aF500.0
aaa(lp353
(g285
g41
(I600
I750
tp354
tp355
a(lp356
F200.0
aF300.0
aF400.0
aF500.0
aF600.0
aF700.0
aaa(lp357
(g285
g41
(I750
I900
tp358
tp359
a(lp360
F200.0
aF300.0
aF400.0
aF500.0
aF600.0
aF700.0
aF800.0
aaa(lp361
(g285
g41
(I900
I1050
tp362
tp363
a(lp364
F200.0
aF300.0
aF400.0
aF500.0
aF600.0
aF700.0
aF800.0
aF900.0
aaa(lp365
(g285
g41
(I1050
I1200
tp366
tp367
a(lp368
F200.0
aF300.0
aF400.0
aF500.0
aF600.0
aF700.0
aF800.0
aF900.0
aaa(lp369
(g285
g41
(I1200
Finf
tp370
tp371
a(lp372
F200.0
aF400.0
aF500.0
aF700.0
aF800.0
aF900.0
aF1100.0
aF1200.0
aF1300.0
aaa(lp373
(g285
g204
(I200
I250
tp374
tp375
a(lp376
F200.0
aaa(lp377
(g285
g204
(I250
I300
tp378
tp379
a(lp380
F200.0
aaa(lp381
(g285
g204
(I300
I350
tp382
tp383
a(lp384
F200.0
aF300.0
aaa(lp385
(g285
g204
(I350
I400
tp386
tp387
a(lp388
F200.0
aF300.0
aaa(lp389
(g285
g204
(I400
I500
tp390
tp391
a(lp392
F200.0
aF300.0
aF400.0
aaa(lp393
(g285
g204
(I500
I600
tp394
tp395
a(lp396
F200.0
aF300.0
aF400.0
aF500.0
aaa(lp397
(g285
g204
(I600
I750
tp398
tp399
a(lp400
F200.0
aF300.0
aF400.0
aF500.0
aF600.0
aF700.0
aaa(lp401
(g285
g204
(I750
I900
tp402
tp403
a(lp404
F200.0
aF300.0
aF400.0
aF500.0
aF600.0
aF700.0
aF800.0
aaa(lp405
(g285
g204
(I900
I1050
tp406
tp407
a(lp408
F200.0
aF300.0
aF400.0
aF500.0
aF600.0
aF700.0
aF800.0
aF900.0
aaa(lp409
(g285
g204
(I1050
I1200
tp410
tp411
a(lp412
F200.0
aF300.0
aF400.0
aF500.0
aF600.0
aF700.0
aF800.0
aF900.0
aaa(lp413
(g285
g204
(I1200
Finf
tp414
tp415
a(lp416
F200.0
aF400.0
aF500.0
aF700.0
aF800.0
aF900.0
aF1100.0
aF1200.0
aF1300.0
aaa(lp417
(g285
S'eq3b'
p418
(I200
I250
tp419
tp420
a(lp421
F200.0
aaa(lp422
(g285
g418
(I250
I300
tp423
tp424
a(lp425
F200.0
aaa(lp426
(g285
g418
(I300
I350
tp427
tp428
a(lp429
F200.0
aF300.0
aaa(lp430
(g285
g418
(I350
I400
tp431
tp432
a(lp433
F200.0
aF300.0
aaa(lp434
(g285
g418
(I400
I500
tp435
tp436
a(lp437
F200.0
aF300.0
aF400.0
aaa(lp438
(g285
g418
(I500
I600
tp439
tp440
a(lp441
F200.0
aF300.0
aF400.0
aF500.0
aaa(lp442
(g285
g418
(I600
I900
tp443
tp444
a(lp445
F200.0
aF300.0
aF400.0
aF500.0
aF600.0
aF700.0
aaa(lp446
(g285
g418
(I900
Finf
tp447
tp448
a(lp449
F200.0
aF300.0
aF400.0
aF500.0
aF600.0
aF700.0
aF800.0
aF900.0
aaa(lp450
(g285
g78
(I200
I250
tp451
tp452
a(lp453
F200.0
aaa(lp454
(g285
g78
(I250
I300
tp455
tp456
a(lp457
F200.0
aaa(lp458
(g285
g78
(I300
I350
tp459
tp460
a(lp461
F200.0
aF300.0
aaa(lp462
(g285
g78
(I350
I400
tp463
tp464
a(lp465
F200.0
aF300.0
aaa(lp466
(g285
g78
(I400
I500
tp467
tp468
a(lp469
F200.0
aF300.0
aF400.0
aaa(lp470
(g285
g78
(I500
I600
tp471
tp472
a(lp473
F200.0
aF300.0
aF400.0
aF500.0
aaa(lp474
(g285
g78
(I600
I750
tp475
tp476
a(lp477
F200.0
aF300.0
aF400.0
aF500.0
aF600.0
aF700.0
aaa(lp478
(g285
g78
(I750
I900
tp479
tp480
a(lp481
F200.0
aF300.0
aF400.0
aF500.0
aF600.0
aF700.0
aF800.0
aaa(lp482
(g285
g78
(I900
I1050
tp483
tp484
a(lp485
F200.0
aF300.0
aF400.0
aF500.0
aF600.0
aF700.0
aF800.0
aF900.0
aaa(lp486
(g285
g78
(I1050
I1200
tp487
tp488
a(lp489
F200.0
aF300.0
aF400.0
aF500.0
aF600.0
aF700.0
aF800.0
aF900.0
aaa(lp490
(g285
g78
(I1200
Finf
tp491
tp492
a(lp493
F200.0
aF400.0
aF500.0
aF700.0
aF800.0
aF900.0
aF1100.0
aF1200.0
aF1300.0
aaa(lp494
(S'eq4j'
p495
g4
(I400
I500
tp496
tp497
a(lp498
F200.0
aF300.0
aF400.0
aaa(lp499
(g495
g4
(I500
I600
tp500
tp501
a(lp502
F200.0
aF300.0
aF400.0
aF500.0
aaa(lp503
(g495
g4
(I600
I750
tp504
tp505
a(lp506
F200.0
aF300.0
aF400.0
aF500.0
aF600.0
aF700.0
aaa(lp507
(g495
g4
(I750
I900
tp508
tp509
a(lp510
F200.0
aF300.0
aF400.0
aF500.0
aF600.0
aF700.0
aaa(lp511
(g495
g4
(I900
I1050
tp512
tp513
a(lp514
F200.0
aF300.0
aF400.0
aF500.0
aF600.0
aF700.0
aF800.0
aF900.0
aaa(lp515
(g495
g4
(I1050
I1200
tp516
tp517
a(lp518
F200.0
aF300.0
aF400.0
aF500.0
aF600.0
aF800.0
aF900.0
aF1000.0
aaa(lp519
(g495
g4
(I1200
Finf
tp520
tp521
a(lp522
F200.0
aF300.0
aF400.0
aF500.0
aF600.0
aF700.0
aF800.0
aF900.0
aF1000.0
aF1100.0
aF1200.0
aaa(lp523
(g495
g41
(I400
I500
tp524
tp525
a(lp526
F200.0
aF300.0
aF400.0
aaa(lp527
(g495
g41
(I500
I600
tp528
tp529
a(lp530
F200.0
aF300.0
aF400.0
aF500.0
aaa(lp531
(g495
g41
(I600
I750
tp532
tp533
a(lp534
F200.0
aF300.0
aF400.0
aF500.0
aF600.0
aF700.0
aaa(lp535
(g495
g41
(I750
I900
tp536
tp537
a(lp538
F200.0
aF300.0
aF400.0
aF500.0
aF600.0
aF700.0
aaa(lp539
(g495
g41
(I900
I1050
tp540
tp541
a(lp542
F200.0
aF300.0
aF400.0
aF500.0
aF600.0
aF700.0
aF800.0
aF900.0
aaa(lp543
(g495
g41
(I1050
I1200
tp544
tp545
a(lp546
F200.0
aF300.0
aF400.0
aF500.0
aF600.0
aF800.0
aF900.0
aF1000.0
aaa(lp547
(g495
g41
(I1200
Finf
tp548
tp549
a(lp550
F200.0
aF300.0
aF400.0
aF500.0
aF600.0
aF700.0
aF800.0
aF900.0
aF1000.0
aF1100.0
aF1200.0
aaa(lp551
(g495
g204
(I400
I500
tp552
tp553
a(lp554
F200.0
aF300.0
aF400.0
aaa(lp555
(g495
g204
(I500
I600
tp556
tp557
a(lp558
F200.0
aF300.0
aF400.0
aF500.0
aaa(lp559
(g495
g204
(I600
I750
tp560
tp561
a(lp562
F200.0
aF300.0
aF400.0
aF500.0
aF600.0
aF700.0
aaa(lp563
(g495
g204
(I750
I900
tp564
tp565
a(lp566
F200.0
aF300.0
aF400.0
aF500.0
aF600.0
aF700.0
aaa(lp567
(g495
g204
(I900
I1050
tp568
tp569
a(lp570
F200.0
aF300.0
aF400.0
aF500.0
aF600.0
aF700.0
aF800.0
aF900.0
aaa(lp571
(g495
g204
(I1050
I1200
tp572
tp573
a(lp574
F200.0
aF300.0
aF400.0
aF500.0
aF600.0
aF800.0
aF900.0
aF1000.0
aaa(lp575
(g495
g204
(I1200
Finf
tp576
tp577
a(lp578
F200.0
aF300.0
aF400.0
aF500.0
aF600.0
aF700.0
aF800.0
aF900.0
aF1000.0
aF1100.0
aF1200.0
aaa(lp579
(g495
g418
(I400
I500
tp580
tp581
a(lp582
F200.0
aF300.0
aF400.0
aaa(lp583
(g495
g418
(I500
I600
tp584
tp585
a(lp586
F200.0
aF300.0
aF400.0
aF500.0
aaa(lp587
(g495
g418
(I600
I750
tp588
tp589
a(lp590
F200.0
aF300.0
aF400.0
aF500.0
aF600.0
aF700.0
aaa(lp591
(g495
g418
(I750
I900
tp592
tp593
a(lp594
F200.0
aF300.0
aF400.0
aF500.0
aF600.0
aF700.0
aaa(lp595
(g495
g418
(I900
Finf
tp596
tp597
a(lp598
F200.0
aF300.0
aF400.0
aF500.0
aF600.0
aF700.0
aF800.0
aF900.0
aaa(lp599
(g495
g78
(I400
I500
tp600
tp601
a(lp602
F200.0
aF300.0
aF400.0
aaa(lp603
(g495
g78
(I500
I600
tp604
tp605
a(lp606
F200.0
aF300.0
aF400.0
aF500.0
aaa(lp607
(g495
g78
(I600
I750
tp608
tp609
a(lp610
F200.0
aF300.0
aF400.0
aF500.0
aF600.0
aF700.0
aaa(lp611
(g495
g78
(I750
I900
tp612
tp613
a(lp614
F200.0
aF300.0
aF400.0
aF500.0
aF600.0
aF700.0
aaa(lp615
(g495
g78
(I900
I1050
tp616
tp617
a(lp618
F200.0
aF300.0
aF400.0
aF500.0
aF600.0
aF700.0
aF800.0
aF900.0
aaa(lp619
(g495
g78
(I1050
I1200
tp620
tp621
a(lp622
F200.0
aF300.0
aF400.0
aF500.0
aF600.0
aF800.0
aF900.0
aF1000.0
aaa(lp623
(g495
g78
(I1200
Finf
tp624
tp625
a(lp626
F200.0
aF300.0
aF400.0
aF500.0
aF600.0
aF700.0
aF800.0
aF900.0
aF1000.0
aF1100.0
aF1200.0
aaa(lp627
(S'eq5j'
p628
g4
(I400
I500
tp629
tp630
a(lp631
F200.0
aF300.0
aF400.0
aaa(lp632
(g628
g4
(I500
I600
tp633
tp634
a(lp635
F200.0
aF300.0
aF400.0
aaa(lp636
(g628
g4
(I600
I750
tp637
tp638
a(lp639
F200.0
aF300.0
aF400.0
aF500.0
aF600.0
aaa(lp640
(g628
g4
(I750
I900
tp641
tp642
a(lp643
F200.0
aF300.0
aF400.0
aF500.0
aF600.0
aF700.0
aaa(lp644
(g628
g4
(I900
I1050
tp645
tp646
a(lp647
F200.0
aF300.0
aF400.0
aF500.0
aF600.0
aF800.0
aaa(lp648
(g628
g4
(I1050
I1200
tp649
tp650
a(lp651
F200.0
aF300.0
aF400.0
aF600.0
aF700.0
aF800.0
aF900.0
aaa(lp652
(g628
g4
(I1200
Finf
tp653
tp654
a(lp655
F200.0
aF300.0
aF400.0
aF500.0
aF600.0
aF700.0
aF900.0
aF1000.0
aF1100.0
aF1200.0
aaa(lp656
(g628
g41
(I400
I500
tp657
tp658
a(lp659
F200.0
aF300.0
aF400.0
aaa(lp660
(g628
g41
(I500
I600
tp661
tp662
a(lp663
F200.0
aF300.0
aF400.0
aaa(lp664
(g628
g41
(I600
I750
tp665
tp666
a(lp667
F200.0
aF300.0
aF400.0
aF500.0
aF600.0
aaa(lp668
(g628
g41
(I750
I900
tp669
tp670
a(lp671
F200.0
aF300.0
aF400.0
aF500.0
aF600.0
aF700.0
aaa(lp672
(g628
g41
(I900
I1050
tp673
tp674
a(lp675
F200.0
aF300.0
aF400.0
aF500.0
aF600.0
aF800.0
aaa(lp676
(g628
g41
(I1050
I1200
tp677
tp678
a(lp679
F200.0
aF300.0
aF400.0
aF600.0
aF700.0
aF800.0
aF900.0
aaa(lp680
(g628
g41
(I1200
Finf
tp681
tp682
a(lp683
F200.0
aF300.0
aF400.0
aF500.0
aF600.0
aF700.0
aF900.0
aF1000.0
aF1100.0
aF1200.0
aaa(lp684
(g628
g204
(I400
I500
tp685
tp686
a(lp687
F200.0
aF300.0
aF400.0
aaa(lp688
(g628
g204
(I500
I600
tp689
tp690
a(lp691
F200.0
aF300.0
aF400.0
aaa(lp692
(g628
g204
(I600
I750
tp693
tp694
a(lp695
F200.0
aF300.0
aF400.0
aF500.0
aF600.0
aaa(lp696
(g628
g204
(I750
I900
tp697
tp698
a(lp699
F200.0
aF300.0
aF400.0
aF500.0
aF600.0
aF700.0
aaa(lp700
(g628
g204
(I900
I1050
tp701
tp702
a(lp703
F200.0
aF300.0
aF400.0
aF500.0
aF600.0
aF800.0
aaa(lp704
(g628
g204
(I1050
I1200
tp705
tp706
a(lp707
F200.0
aF300.0
aF400.0
aF600.0
aF700.0
aF800.0
aF900.0
aaa(lp708
(g628
g204
(I1200
Finf
tp709
tp710
a(lp711
F200.0
aF300.0
aF400.0
aF500.0
aF600.0
aF700.0
aF900.0
aF1000.0
aF1100.0
aF1200.0
aaa(lp712
(g628
g418
(I400
I500
tp713
tp714
a(lp715
F200.0
aF300.0
aF400.0
aaa(lp716
(g628
g418
(I500
I600
tp717
tp718
a(lp719
F200.0
aF300.0
aF400.0
aaa(lp720
(g628
g418
(I600
I750
tp721
tp722
a(lp723
F200.0
aF300.0
aF400.0
aF500.0
aF600.0
aaa(lp724
(g628
g418
(I750
I900
tp725
tp726
a(lp727
F200.0
aF300.0
aF400.0
aF500.0
aF600.0
aF700.0
aaa(lp728
(g628
g418
(I900
Finf
tp729
tp730
a(lp731
F200.0
aF300.0
aF400.0
aF500.0
aF600.0
aF800.0
aaa(lp732
(g628
g78
(I400
I500
tp733
tp734
a(lp735
F200.0
aF300.0
aF400.0
aaa(lp736
(g628
g78
(I500
I600
tp737
tp738
a(lp739
F200.0
aF300.0
aF400.0
aaa(lp740
(g628
g78
(I600
I750
tp741
tp742
a(lp743
F200.0
aF300.0
aF400.0
aF500.0
aF600.0
aaa(lp744
(g628
g78
(I750
I900
tp745
tp746
a(lp747
F200.0
aF300.0
aF400.0
aF500.0
aF600.0
aF700.0
aaa(lp748
(g628
g78
(I900
I1050
tp749
tp750
a(lp751
F200.0
aF300.0
aF400.0
aF500.0
aF600.0
aF800.0
aaa(lp752
(g628
g78
(I1050
I1200
tp753
tp754
a(lp755
F200.0
aF300.0
aF400.0
aF600.0
aF700.0
aF800.0
aF900.0
aaa(lp756
(g628
g78
(I1200
Finf
tp757
tp758
a(lp759
F200.0
aF300.0
aF400.0
aF500.0
aF600.0
aF700.0
aF900.0
aF1000.0
aF1100.0
aF1200.0
aaa(lp760
(g628
S'ge4b'
p761
(I400
Finf
tp762
tp763
a(lp764
F200.0
aF300.0
aF400.0
aaa(lp765
(S'ge2a'
p766
g4
(I200
I250
tp767
tp768
a(lp769
F200.0
aaa(lp770
(g766
g4
(I250
I300
tp771
tp772
a(lp773
F200.0
aaa(lp774
(g766
g4
(I300
I350
tp775
tp776
a(lp777
F200.0
aF300.0
aaa(lp778
(g766
g4
(I350
I400
tp779
tp780
a(lp781
F200.0
aF300.0
aaa(lp782
(g766
g4
(I400
I500
tp783
tp784
a(lp785
F200.0
aF300.0
aF400.0
aaa(lp786
(g766
g4
(I500
I600
tp787
tp788
a(lp789
F200.0
aF300.0
aF400.0
aF500.0
aaa(lp790
(g766
g4
(I600
I750
tp791
tp792
a(lp793
F200.0
aF300.0
aF400.0
aF500.0
aF600.0
aF700.0
aaa(lp794
(g766
g4
(I750
I900
tp795
tp796
a(lp797
F200.0
aF700.0
aF800.0
aaa(lp798
(g766
g4
(I900
Finf
tp799
tp800
a(lp801
F200.0
aF800.0
aF900.0
aF1000.0
aF1100.0
aaa(lp802
(g766
g41
(I200
I250
tp803
tp804
a(lp805
F200.0
aaa(lp806
(g766
g41
(I250
I300
tp807
tp808
a(lp809
F200.0
aaa(lp810
(g766
g41
(I300
I350
tp811
tp812
a(lp813
F200.0
aF300.0
aaa(lp814
(g766
g41
(I350
I400
tp815
tp816
a(lp817
F200.0
aF300.0
aaa(lp818
(g766
g41
(I400
I500
tp819
tp820
a(lp821
F200.0
aF300.0
aF400.0
aaa(lp822
(g766
g41
(I500
I600
tp823
tp824
a(lp825
F200.0
aF300.0
aF400.0
aF500.0
aaa(lp826
(g766
g41
(I600
I750
tp827
tp828
a(lp829
F200.0
aF300.0
aF400.0
aF500.0
aF600.0
aF700.0
aaa(lp830
(g766
g41
(I750
I900
tp831
tp832
a(lp833
F200.0
aF700.0
aF800.0
aaa(lp834
(g766
g41
(I900
Finf
tp835
tp836
a(lp837
F200.0
aF800.0
aF900.0
aF1000.0
aF1100.0
aaa(lp838
(g766
g204
(I200
I250
tp839
tp840
a(lp841
F200.0
aaa(lp842
(g766
g204
(I250
I300
tp843
tp844
a(lp845
F200.0
aaa(lp846
(g766
g204
(I300
I350
tp847
tp848
a(lp849
F200.0
aF300.0
aaa(lp850
(g766
g204
(I350
I400
tp851
tp852
a(lp853
F200.0
aF300.0
aaa(lp854
(g766
g204
(I400
I500
tp855
tp856
a(lp857
F200.0
aF300.0
aF400.0
aaa(lp858
(g766
g204
(I500
I600
tp859
tp860
a(lp861
F200.0
aF300.0
aF400.0
aF500.0
aaa(lp862
(g766
g204
(I600
I750
tp863
tp864
a(lp865
F200.0
aF300.0
aF400.0
aF500.0
aF600.0
aF700.0
aaa(lp866
(g766
g204
(I750
I900
tp867
tp868
a(lp869
F200.0
aF700.0
aF800.0
aaa(lp870
(g766
g204
(I900
Finf
tp871
tp872
a(lp873
F200.0
aF800.0
aF900.0
aF1000.0
aF1100.0
aaa(lp874
(g766
g418
(I200
I250
tp875
tp876
a(lp877
F200.0
aaa(lp878
(g766
g418
(I250
I300
tp879
tp880
a(lp881
F200.0
aaa(lp882
(g766
g418
(I300
I350
tp883
tp884
a(lp885
F200.0
aF300.0
aaa(lp886
(g766
g418
(I350
I400
tp887
tp888
a(lp889
F200.0
aF300.0
aaa(lp890
(g766
g418
(I400
I500
tp891
tp892
a(lp893
F200.0
aF300.0
aF400.0
aaa(lp894
(g766
g418
(I500
I600
tp895
tp896
a(lp897
F200.0
aF300.0
aF400.0
aF500.0
aaa(lp898
(g766
g418
(I600
Finf
tp899
tp900
a(lp901
F200.0
aF300.0
aF400.0
aF500.0
aF600.0
aF700.0
aaa(lp902
(g766
g78
(I200
I250
tp903
tp904
a(lp905
F200.0
aaa(lp906
(g766
g78
(I250
I300
tp907
tp908
a(lp909
F200.0
aaa(lp910
(g766
g78
(I300
I350
tp911
tp912
a(lp913
F200.0
aF300.0
aaa(lp914
(g766
g78
(I350
I400
tp915
tp916
a(lp917
F200.0
aF300.0
aaa(lp918
(g766
g78
(I400
I500
tp919
tp920
a(lp921
F200.0
aF300.0
aF400.0
aaa(lp922
(g766
g78
(I500
I600
tp923
tp924
a(lp925
F200.0
aF300.0
aF400.0
aF500.0
aaa(lp926
(g766
g78
(I600
I750
tp927
tp928
a(lp929
F200.0
aF300.0
aF400.0
aF500.0
aF600.0
aF700.0
aaa(lp930
(g766
g78
(I750
I900
tp931
tp932
a(lp933
F200.0
aF700.0
aF800.0
aaa(lp934
(g766
g78
(I900
Finf
tp935
tp936
a(lp937
F200.0
aF800.0
aF900.0
aF1000.0
aF1100.0
aaa(lp938
(S'ge6j'
p939
g4
(I400
I500
tp940
tp941
a(lp942
F200.0
aaa(lp943
(g939
g4
(I500
I600
tp944
tp945
a(lp946
F200.0
aF300.0
aF400.0
aaa(lp947
(g939
g4
(I600
I750
tp948
tp949
a(lp950
F200.0
aF300.0
aF400.0
aF500.0
aaa(lp951
(g939
g4
(I750
I900
tp952
tp953
a(lp954
F200.0
aF300.0
aF400.0
aF500.0
aF600.0
aaa(lp955
(g939
g4
(I900
I1050
tp956
tp957
a(lp958
F200.0
aF300.0
aF400.0
aF500.0
aF600.0
aF700.0
aaa(lp959
(g939
g4
(I1050
I1200
tp960
tp961
a(lp962
F200.0
aF300.0
aF400.0
aF700.0
aaa(lp963
(g939
g4
(I1200
Finf
tp964
tp965
a(lp966
F200.0
aF300.0
aF400.0
aF600.0
aF700.0
aF900.0
aF1100.0
aaa(lp967
(g939
g41
(I400
I500
tp968
tp969
a(lp970
F200.0
aaa(lp971
(g939
g41
(I500
I600
tp972
tp973
a(lp974
F200.0
aF300.0
aF400.0
aaa(lp975
(g939
g41
(I600
I750
tp976
tp977
a(lp978
F200.0
aF300.0
aF400.0
aF500.0
aaa(lp979
(g939
g41
(I750
I900
tp980
tp981
a(lp982
F200.0
aF300.0
aF400.0
aF500.0
aF600.0
aaa(lp983
(g939
g41
(I900
I1050
tp984
tp985
a(lp986
F200.0
aF300.0
aF400.0
aF500.0
aF600.0
aF700.0
aaa(lp987
(g939
g41
(I1050
I1200
tp988
tp989
a(lp990
F200.0
aF300.0
aF400.0
aF700.0
aaa(lp991
(g939
g41
(I1200
Finf
tp992
tp993
a(lp994
F200.0
aF300.0
aF400.0
aF600.0
aF700.0
aF900.0
aF1100.0
aaa(lp995
(g939
g204
(I400
I500
tp996
tp997
a(lp998
F200.0
aaa(lp999
(g939
g204
(I500
I600
tp1000
tp1001
a(lp1002
F200.0
aF300.0
aF400.0
aaa(lp1003
(g939
g204
(I600
I750
tp1004
tp1005
a(lp1006
F200.0
aF300.0
aF400.0
aF500.0
aaa(lp1007
(g939
g204
(I750
I900
tp1008
tp1009
a(lp1010
F200.0
aF300.0
aF400.0
aF500.0
aF600.0
aaa(lp1011
(g939
g204
(I900
I1050
tp1012
tp1013
a(lp1014
F200.0
aF300.0
aF400.0
aF500.0
aF600.0
aF700.0
aaa(lp1015
(g939
g204
(I1050
I1200
tp1016
tp1017
a(lp1018
F200.0
aF300.0
aF400.0
aF700.0
aaa(lp1019
(g939
g204
(I1200
Finf
tp1020
tp1021
a(lp1022
F200.0
aF300.0
aF400.0
aF600.0
aF700.0
aF900.0
aF1100.0
aaa(lp1023
(g939
g418
(I400
I500
tp1024
tp1025
a(lp1026
F200.0
aaa(lp1027
(g939
g418
(I500
I600
tp1028
tp1029
a(lp1030
F200.0
aF300.0
aF400.0
aaa(lp1031
(g939
g418
(I600
I750
tp1032
tp1033
a(lp1034
F200.0
aF300.0
aF400.0
aF500.0
aaa(lp1035
(g939
g418
(I750
I900
tp1036
tp1037
a(lp1038
F200.0
aF300.0
aF400.0
aF500.0
aF600.0
aaa(lp1039
(g939
g418
(I900
I1050
tp1040
tp1041
a(lp1042
F200.0
aF300.0
aF400.0
aF500.0
aF600.0
aF700.0
aaa(lp1043
(g939
g418
(I1050
I1200
tp1044
tp1045
a(lp1046
F200.0
aF300.0
aF400.0
aF700.0
aaa(lp1047
(g939
g418
(I1200
Finf
tp1048
tp1049
a(lp1050
F200.0
aF300.0
aF400.0
aF600.0
aF700.0
aF900.0
aF1100.0
aaa(lp1051
(g939
g78
(I400
I500
tp1052
tp1053
a(lp1054
F200.0
aaa(lp1055
(g939
g78
(I500
I600
tp1056
tp1057
a(lp1058
F200.0
aF300.0
aF400.0
aaa(lp1059
(g939
g78
(I600
I750
tp1060
tp1061
a(lp1062
F200.0
aF300.0
aF400.0
aF500.0
aaa(lp1063
(g939
g78
(I750
I900
tp1064
tp1065
a(lp1066
F200.0
aF300.0
aF400.0
aF500.0
aF600.0
aaa(lp1067
(g939
g78
(I900
I1050
tp1068
tp1069
a(lp1070
F200.0
aF300.0
aF400.0
aF500.0
aF600.0
aF700.0
aaa(lp1071
(g939
g78
(I1050
I1200
tp1072
tp1073
a(lp1074
F200.0
aF300.0
aF400.0
aF700.0
aaa(lp1075
(g939
g78
(I1200
Finf
tp1076
tp1077
a(lp1078
F200.0
aF300.0
aF400.0
aF600.0
aF700.0
aF900.0
aF1100.0
aaa(lp1079
(g939
g761
(I400
Finf
tp1080
tp1081
a(lp1082
F200.0
aaatp1083
Rp1084
.