ccollections
OrderedDict
p0
((lp1
(lp2
(S'eq1j'
p3
S'eq0b'
p4
(I200
I400
tp5
tp6
a(lp7
F200.0
aF300.0
aaa(lp8
(g3
g4
(I400
I600
tp9
tp10
a(lp11
F400.0
aF500.0
aaa(lp12
(g3
g4
(I600
I900
tp13
tp14
a(lp15
F600.0
aF700.0
aF800.0
aaa(lp16
(g3
g4
(I900
Finf
tp17
tp18
a(lp19
F900.0
aF1000.0
aF1200.0
aF1300.0
aF1400.0
aaa(lp20
(g3
S'eq1b'
p21
(I200
I400
tp22
tp23
a(lp24
F200.0
aF300.0
aaa(lp25
(g3
g21
(I400
I600
tp26
tp27
a(lp28
F400.0
aF500.0
aaa(lp29
(g3
g21
(I600
I900
tp30
tp31
a(lp32
F600.0
aF700.0
aF800.0
aaa(lp33
(g3
g21
(I900
Finf
tp34
tp35
a(lp36
F900.0
aF1000.0
aF1200.0
aF1300.0
aF1400.0
aaa(lp37
(g3
S'ge0b'
p38
(I200
I400
tp39
tp40
a(lp41
F200.0
aF300.0
aaa(lp42
(g3
g38
(I400
I600
tp43
tp44
a(lp45
F400.0
aF500.0
aaa(lp46
(g3
g38
(I600
I900
tp47
tp48
a(lp49
F600.0
aF700.0
aF800.0
aaa(lp50
(g3
g38
(I900
Finf
tp51
tp52
a(lp53
F900.0
aF1000.0
aF1200.0
aF1300.0
aF1400.0
aaa(lp54
(S'eq2j'
p55
g4
(I400
I600
tp56
tp57
a(lp58
F200.0
aF300.0
aF400.0
aF500.0
aaa(lp59
(g55
g4
(I600
I900
tp60
tp61
a(lp62
F200.0
aF300.0
aF400.0
aF500.0
aF600.0
aF700.0
aF800.0
aaa(lp63
(g55
g4
(I900
I1200
tp64
tp65
a(lp66
F200.0
aF300.0
aF400.0
aF500.0
aF600.0
aF700.0
aF800.0
aF900.0
aF1000.0
aF1100.0
aaa(lp67
(g55
g4
(I1200
Finf
tp68
tp69
a(lp70
F200.0
aF400.0
aF500.0
aF600.0
aF900.0
aF1500.0
aaa(lp71
(g55
g21
(I400
I600
tp72
tp73
a(lp74
F200.0
aF300.0
aF400.0
aF500.0
aaa(lp75
(g55
g21
(I600
I900
tp76
tp77
a(lp78
F200.0
aF300.0
aF400.0
aF500.0
aF600.0
aF700.0
aF800.0
aaa(lp79
(g55
g21
(I900
I1200
tp80
tp81
a(lp82
F200.0
aF300.0
aF400.0
aF500.0
aF600.0
aF700.0
aF800.0
aF900.0
aF1000.0
aF1100.0
aaa(lp83
(g55
g21
(I1200
Finf
tp84
tp85
a(lp86
F200.0
aF400.0
aF500.0
aF600.0
aF900.0
aF1500.0
aaa(lp87
(g55
S'eq2b'
p88
(I400
I600
tp89
tp90
a(lp91
F200.0
aF300.0
aF400.0
aF500.0
aaa(lp92
(g55
g88
(I600
I900
tp93
tp94
a(lp95
F200.0
aF300.0
aF400.0
aF500.0
aF600.0
aF700.0
aF800.0
aaa(lp96
(g55
g88
(I900
Finf
tp97
tp98
a(lp99
F200.0
aF300.0
aF400.0
aF500.0
aF600.0
aF700.0
aF800.0
aF900.0
aF1000.0
aF1100.0
aaa(lp100
(g55
g38
(I400
I600
tp101
tp102
a(lp103
F200.0
aF300.0
aF400.0
aF500.0
aaa(lp104
(g55
g38
(I600
I900
tp105
tp106
a(lp107
F200.0
aF300.0
aF400.0
aF500.0
aF600.0
aF700.0
aF800.0
aaa(lp108
(g55
g38
(I900
I1200
tp109
tp110
a(lp111
F200.0
aF300.0
aF400.0
aF500.0
aF600.0
aF700.0
aF800.0
aF900.0
aF1000.0
aF1100.0
aaa(lp112
(g55
g38
(I1200
Finf
tp113
tp114
a(lp115
F200.0
aF400.0
aF500.0
aF600.0
aF900.0
aF1500.0
aaa(lp116
(S'eq3j'
p117
g4
(I400
I600
tp118
tp119
a(lp120
F200.0
aF300.0
aF400.0
aF500.0
aaa(lp121
(g117
g4
(I600
I900
tp122
tp123
a(lp124
F200.0
aF300.0
aF400.0
aF500.0
aF600.0
aF700.0
aF800.0
aaa(lp125
(g117
g4
(I900
I1200
tp126
tp127
a(lp128
F200.0
aF300.0
aF400.0
aF500.0
aF600.0
aF700.0
aF800.0
aF900.0
aaa(lp129
(g117
g4
(I1200
Finf
tp130
tp131
a(lp132
F200.0
aF400.0
aF500.0
aF700.0
aF800.0
aF900.0
aF1100.0
aF1200.0
aF1300.0
aaa(lp133
(g117
g21
(I400
I600
tp134
tp135
a(lp136
F200.0
aF300.0
aF400.0
aF500.0
aaa(lp137
(g117
g21
(I600
I900
tp138
tp139
a(lp140
F200.0
aF300.0
aF400.0
aF500.0
aF600.0
aF700.0
aF800.0
aaa(lp141
(g117
g21
(I900
I1200
tp142
tp143
a(lp144
F200.0
aF300.0
aF400.0
aF500.0
aF600.0
aF700.0
aF800.0
aF900.0
aaa(lp145
(g117
g21
(I1200
Finf
tp146
tp147
a(lp148
F200.0
aF400.0
aF500.0
aF700.0
aF800.0
aF900.0
aF1100.0
aF1200.0
aF1300.0
aaa(lp149
(g117
g88
(I400
I600
tp150
tp151
a(lp152
F200.0
aF300.0
aF400.0
aF500.0
aaa(lp153
(g117
g88
(I600
I900
tp154
tp155
a(lp156
F200.0
aF300.0
aF400.0
aF500.0
aF600.0
aF700.0
aF800.0
aaa(lp157
(g117
g88
(I900
I1200
tp158
tp159
a(lp160
F200.0
aF300.0
aF400.0
aF500.0
aF600.0
aF700.0
aF800.0
aF900.0
aaa(lp161
(g117
g88
(I1200
Finf
tp162
tp163
a(lp164
F200.0
aF400.0
aF500.0
aF700.0
aF800.0
aF900.0
aF1100.0
aF1200.0
aF1300.0
aaa(lp165
(g117
S'eq3b'
p166
(I400
I600
tp167
tp168
a(lp169
F200.0
aF300.0
aF400.0
aF500.0
aaa(lp170
(g117
g166
(I600
I900
tp171
tp172
a(lp173
F200.0
aF300.0
aF400.0
aF500.0
aF600.0
aF700.0
aF800.0
aaa(lp174
(g117
g166
(I900
Finf
tp175
tp176
a(lp177
F200.0
aF300.0
aF400.0
aF500.0
aF600.0
aF700.0
aF800.0
aF900.0
aaa(lp178
(g117
g38
(I400
I600
tp179
tp180
a(lp181
F200.0
aF300.0
aF400.0
aF500.0
aaa(lp182
(g117
g38
(I600
I900
tp183
tp184
a(lp185
F200.0
aF300.0
aF400.0
aF500.0
aF600.0
aF700.0
aF800.0
aaa(lp186
(g117
g38
(I900
I1200
tp187
tp188
a(lp189
F200.0
aF300.0
aF400.0
aF500.0
aF600.0
aF700.0
aF800.0
aF900.0
aaa(lp190
(g117
g38
(I1200
Finf
tp191
tp192
a(lp193
F200.0
aF400.0
aF500.0
aF700.0
aF800.0
aF900.0
aF1100.0
aF1200.0
aF1300.0
aaa(lp194
(S'eq4j'
p195
g4
(I400
I600
tp196
tp197
a(lp198
F200.0
aF300.0
aF400.0
aF500.0
aaa(lp199
(g195
g4
(I600
I900
tp200
tp201
a(lp202
F200.0
aF300.0
aF400.0
aF500.0
aF600.0
aF700.0
aaa(lp203
(g195
g4
(I900
I1200
tp204
tp205
a(lp206
F200.0
aF300.0
aF400.0
aF500.0
aF600.0
aF700.0
aF800.0
aF900.0
aF1000.0
aaa(lp207
(g195
g4
(I1200
Finf
tp208
tp209
a(lp210
F200.0
aF300.0
aF400.0
aF500.0
aF600.0
aF700.0
aF800.0
aF900.0
aF1000.0
aF1100.0
aF1200.0
aaa(lp211
(g195
g21
(I400
I600
tp212
tp213
a(lp214
F200.0
aF300.0
aF400.0
aF500.0
aaa(lp215
(g195
g21
(I600
I900
tp216
tp217
a(lp218
F200.0
aF300.0
aF400.0
aF500.0
aF600.0
aF700.0
aaa(lp219
(g195
g21
(I900
I1200
tp220
tp221
a(lp222
F200.0
aF300.0
aF400.0
aF500.0
aF600.0
aF700.0
aF800.0
aF900.0
aF1000.0
aaa(lp223
(g195
g21
(I1200
Finf
tp224
tp225
a(lp226
F200.0
aF300.0
aF400.0
aF500.0
aF600.0
aF700.0
aF800.0
aF900.0
aF1000.0
aF1100.0
aF1200.0
aaa(lp227
(g195
g88
(I400
I600
tp228
tp229
a(lp230
F200.0
aF300.0
aF400.0
aF500.0
aaa(lp231
(g195
g88
(I600
I900
tp232
tp233
a(lp234
F200.0
aF300.0
aF400.0
aF500.0
aF600.0
aF700.0
aaa(lp235
(g195
g88
(I900
I1200
tp236
tp237
a(lp238
F200.0
aF300.0
aF400.0
aF500.0
aF600.0
aF700.0
aF800.0
aF900.0
aF1000.0
aaa(lp239
(g195
g88
(I1200
Finf
tp240
tp241
a(lp242
F200.0
aF300.0
aF400.0
aF500.0
aF600.0
aF700.0
aF800.0
aF900.0
aF1000.0
aF1100.0
aF1200.0
aaa(lp243
(g195
g166
(I400
I600
tp244
tp245
a(lp246
F200.0
aF300.0
aF400.0
aF500.0
aaa(lp247
(g195
g166
(I600
I900
tp248
tp249
a(lp250
F200.0
aF300.0
aF400.0
aF500.0
aF600.0
aF700.0
aaa(lp251
(g195
g166
(I900
Finf
tp252
tp253
a(lp254
F200.0
aF300.0
aF400.0
aF500.0
aF600.0
aF700.0
aF800.0
aF900.0
aF1000.0
aaa(lp255
(g195
g38
(I400
I600
tp256
tp257
a(lp258
F200.0
aF300.0
aF400.0
aF500.0
aaa(lp259
(g195
g38
(I600
I900
tp260
tp261
a(lp262
F200.0
aF300.0
aF400.0
aF500.0
aF600.0
aF700.0
aaa(lp263
(g195
g38
(I900
I1200
tp264
tp265
a(lp266
F200.0
aF300.0
aF400.0
aF500.0
aF600.0
aF700.0
aF800.0
aF900.0
aF1000.0
aaa(lp267
(g195
g38
(I1200
Finf
tp268
tp269
a(lp270
F200.0
aF300.0
aF400.0
aF500.0
aF600.0
aF700.0
aF800.0
aF900.0
aF1000.0
aF1100.0
aF1200.0
aaa(lp271
(S'eq5j'
p272
g4
(I400
I600
tp273
tp274
a(lp275
F200.0
aF300.0
aF400.0
aaa(lp276
(g272
g4
(I600
I900
tp277
tp278
a(lp279
F200.0
aF300.0
aF400.0
aF500.0
aF600.0
aF700.0
aaa(lp280
(g272
g4
(I900
I1200
tp281
tp282
a(lp283
F200.0
aF300.0
aF400.0
aF500.0
aF600.0
aF700.0
aF800.0
aF900.0
aaa(lp284
(g272
g4
(I1200
Finf
tp285
tp286
a(lp287
F200.0
aF300.0
aF400.0
aF500.0
aF600.0
aF700.0
aF900.0
aF1000.0
aF1100.0
aF1200.0
aaa(lp288
(g272
g21
(I400
I600
tp289
tp290
a(lp291
F200.0
aF300.0
aF400.0
aaa(lp292
(g272
g21
(I600
I900
tp293
tp294
a(lp295
F200.0
aF300.0
aF400.0
aF500.0
aF600.0
aF700.0
aaa(lp296
(g272
g21
(I900
I1200
tp297
tp298
a(lp299
F200.0
aF300.0
aF400.0
aF500.0
aF600.0
aF700.0
aF800.0
aF900.0
aaa(lp300
(g272
g21
(I1200
Finf
tp301
tp302
a(lp303
F200.0
aF300.0
aF400.0
aF500.0
aF600.0
aF700.0
aF900.0
aF1000.0
aF1100.0
aF1200.0
aaa(lp304
(g272
g88
(I400
I600
tp305
tp306
a(lp307
F200.0
aF300.0
aF400.0
aaa(lp308
(g272
g88
(I600
I900
tp309
tp310
a(lp311
F200.0
aF300.0
aF400.0
aF500.0
aF600.0
aF700.0
aaa(lp312
(g272
g88
(I900
I1200
tp313
tp314
a(lp315
F200.0
aF300.0
aF400.0
aF500.0
aF600.0
aF700.0
aF800.0
aF900.0
aaa(lp316
(g272
g88
(I1200
Finf
tp317
tp318
a(lp319
F200.0
aF300.0
aF400.0
aF500.0
aF600.0
aF700.0
aF900.0
aF1000.0
aF1100.0
aF1200.0
aaa(lp320
(g272
g166
(I400
I600
tp321
tp322
a(lp323
F200.0
aF300.0
aF400.0
aaa(lp324
(g272
g166
(I600
I900
tp325
tp326
a(lp327
F200.0
aF300.0
aF400.0
aF500.0
aF600.0
aF700.0
aaa(lp328
(g272
g166
(I900
Finf
tp329
tp330
a(lp331
F200.0
aF300.0
aF400.0
aF500.0
aF600.0
aF700.0
aF800.0
aF900.0
aaa(lp332
(g272
g38
(I400
I600
tp333
tp334
a(lp335
F200.0
aF300.0
aF400.0
aaa(lp336
(g272
g38
(I600
I900
tp337
tp338
a(lp339
F200.0
aF300.0
aF400.0
aF500.0
aF600.0
aF700.0
aaa(lp340
(g272
g38
(I900
I1200
tp341
tp342
a(lp343
F200.0
aF300.0
aF400.0
aF500.0
aF600.0
aF700.0
aF800.0
aF900.0
aaa(lp344
(g272
g38
(I1200
Finf
tp345
tp346
a(lp347
F200.0
aF300.0
aF400.0
aF500.0
aF600.0
aF700.0
aF900.0
aF1000.0
aF1100.0
aF1200.0
aaa(lp348
(g272
S'ge4b'
p349
(I400
Finf
tp350
tp351
a(lp352
F200.0
aF300.0
aF400.0
aaa(lp353
(S'ge2a'
p354
g4
(I200
I400
tp355
tp356
a(lp357
F200.0
aF300.0
aaa(lp358
(g354
g4
(I400
I600
tp359
tp360
a(lp361
F200.0
aF300.0
aF400.0
aF500.0
aaa(lp362
(g354
g4
(I600
I900
tp363
tp364
a(lp365
F200.0
aF300.0
aF400.0
aF500.0
aF600.0
aF700.0
aF800.0
aaa(lp366
(g354
g4
(I900
Finf
tp367
tp368
a(lp369
F200.0
aF800.0
aF900.0
aF1000.0
aF1100.0
aaa(lp370
(g354
g21
(I200
I400
tp371
tp372
a(lp373
F200.0
aF300.0
aaa(lp374
(g354
g21
(I400
I600
tp375
tp376
a(lp377
F200.0
aF300.0
aF400.0
aF500.0
aaa(lp378
(g354
g21
(I600
I900
tp379
tp380
a(lp381
F200.0
aF300.0
aF400.0
aF500.0
aF600.0
aF700.0
aF800.0
aaa(lp382
(g354
g21
(I900
Finf
tp383
tp384
a(lp385
F200.0
aF800.0
aF900.0
aF1000.0
aF1100.0
aaa(lp386
(g354
g88
(I200
I400
tp387
tp388
a(lp389
F200.0
aF300.0
aaa(lp390
(g354
g88
(I400
I600
tp391
tp392
a(lp393
F200.0
aF300.0
aF400.0
aF500.0
aaa(lp394
(g354
g88
(I600
I900
tp395
tp396
a(lp397
F200.0
aF300.0
aF400.0
aF500.0
aF600.0
aF700.0
aF800.0
aaa(lp398
(g354
g88
(I900
Finf
tp399
tp400
a(lp401
F200.0
aF800.0
aF900.0
aF1000.0
aF1100.0
aaa(lp402
(g354
g166
(I200
I400
tp403
tp404
a(lp405
F200.0
aF300.0
aaa(lp406
(g354
g166
(I400
I600
tp407
tp408
a(lp409
F200.0
aF300.0
aF400.0
aF500.0
aaa(lp410
(g354
g166
(I600
Finf
tp411
tp412
a(lp413
F200.0
aF300.0
aF400.0
aF500.0
aF600.0
aF700.0
aF800.0
aaa(lp414
(g354
g38
(I200
I400
tp415
tp416
a(lp417
F200.0
aF300.0
aaa(lp418
(g354
g38
(I400
I600
tp419
tp420
a(lp421
F200.0
aF300.0
aF400.0
aF500.0
aaa(lp422
(g354
g38
(I600
I900
tp423
tp424
a(lp425
F200.0
aF300.0
aF400.0
aF500.0
aF600.0
aF700.0
aF800.0
aaa(lp426
(g354
g38
(I900
Finf
tp427
tp428
a(lp429
F200.0
aF800.0
aF900.0
aF1000.0
aF1100.0
aaa(lp430
(S'ge6j'
p431
g4
(I400
I600
tp432
tp433
a(lp434
F200.0
aF300.0
aF400.0
aaa(lp435
(g431
g4
(I600
I900
tp436
tp437
a(lp438
F200.0
aF300.0
aF400.0
aF500.0
aF600.0
aaa(lp439
(g431
g4
(I900
I1200
tp440
tp441
a(lp442
F200.0
aF300.0
aF400.0
aF500.0
aF700.0
aF800.0
aaa(lp443
(g431
g4
(I1200
Finf
tp444
tp445
a(lp446
F200.0
aF300.0
aF400.0
aF600.0
aF700.0
aF900.0
aF1100.0
aaa(lp447
(g431
g21
(I400
I600
tp448
tp449
a(lp450
F200.0
aF300.0
aF400.0
aaa(lp451
(g431
g21
(I600
I900
tp452
tp453
a(lp454
F200.0
aF300.0
aF400.0
aF500.0
aF600.0
aaa(lp455
(g431
g21
(I900
I1200
tp456
tp457
a(lp458
F200.0
aF300.0
aF400.0
aF500.0
aF700.0
aF800.0
aaa(lp459
(g431
g21
(I1200
Finf
tp460
tp461
a(lp462
F200.0
aF300.0
aF400.0
aF600.0
aF700.0
aF900.0
aF1100.0
aaa(lp463
(g431
g88
(I400
I600
tp464
tp465
a(lp466
F200.0
aF300.0
aF400.0
aaa(lp467
(g431
g88
(I600
I900
tp468
tp469
a(lp470
F200.0
aF300.0
aF400.0
aF500.0
aF600.0
aaa(lp471
(g431
g88
(I900
I1200
tp472
tp473
a(lp474
F200.0
aF300.0
aF400.0
aF500.0
aF700.0
aF800.0
aaa(lp475
(g431
g88
(I1200
Finf
tp476
tp477
a(lp478
F200.0
aF300.0
aF400.0
aF600.0
aF700.0
aF900.0
aF1100.0
aaa(lp479
(g431
g166
(I400
I600
tp480
tp481
a(lp482
F200.0
aF300.0
aF400.0
aaa(lp483
(g431
g166
(I600
I900
tp484
tp485
a(lp486
F200.0
aF300.0
aF400.0
aF500.0
aF600.0
aaa(lp487
(g431
g166
(I900
I1200
tp488
tp489
a(lp490
F200.0
aF300.0
aF400.0
aF500.0
aF700.0
aF800.0
aaa(lp491
(g431
g166
(I1200
Finf
tp492
tp493
a(lp494
F200.0
aF300.0
aF400.0
aF600.0
aF700.0
aF900.0
aF1100.0
aaa(lp495
(g431
g38
(I400
I600
tp496
tp497
a(lp498
F200.0
aF300.0
aF400.0
aaa(lp499
(g431
g38
(I600
I900
tp500
tp501
a(lp502
F200.0
aF300.0
aF400.0
aF500.0
aF600.0
aaa(lp503
(g431
g38
(I900
I1200
tp504
tp505
a(lp506
F200.0
aF300.0
aF400.0
aF500.0
aF700.0
aF800.0
aaa(lp507
(g431
g38
(I1200
Finf
tp508
tp509
a(lp510
F200.0
aF300.0
aF400.0
aF600.0
aF700.0
aF900.0
aF1100.0
aaa(lp511
(g431
g349
(I400
Finf
tp512
tp513
a(lp514
F200.0
aF300.0
aF400.0
aaatp515
Rp516
.