(dp0
S'eq1b_eq5j_900_1200_mht_200_400'
p1
(ccopy_reg
_reconstructor
p2
(cuncertainties
Variable
p3
c__builtin__
object
p4
Ntp5
Rp6
(dp7
S'_nominal_value'
p8
F5.04380989074707
sS'_std_dev'
p9
g2
(cuncertainties
CallableStdDev
p10
c__builtin__
float
p11
F0.7139357439721001
tp12
Rp13
sS'tag'
p14
NsS'derivatives'
p15
(dp16
g6
F1.0
ssbg2
(g3
g4
Ntp17
Rp18
(dp19
g8
F2.882014751434326
sg9
g2
(g10
g11
F0.47743565849890873
tp20
Rp21
sg14
Nsg15
(dp22
g18
F1.0
ssbg2
(g3
g4
Ntp23
Rp24
(dp25
g8
F2.161795139312744
sg9
g2
(g10
g11
F0.3149037344232922
tp26
Rp27
sg14
Nsg15
(dp28
g24
F1.0
ssbg2
(g3
g4
Ntp29
Rp30
(dp31
g8
F1.1792009591005126e-09
sg9
g2
(g10
g11
F9.846414660211628e-10
tp32
Rp33
sg14
Nsg15
(dp34
g30
F1.0
ssbF2.0
F1.2642
F2.2504
tp35
sS'eq0b_eq2j_600_900_mht_700_750'
p36
(g2
(g3
g4
Ntp37
Rp38
(dp39
g8
F4.013738248431764e-07
sg9
g2
(g10
g11
F2.9331091854076846e-07
tp40
Rp41
sg14
Nsg15
(dp42
g38
F1.0
ssbg2
(g3
g4
Ntp43
Rp44
(dp45
g8
F1.9999995970465534e-07
sg9
g2
(g10
g11
F1.2035193891583704e-07
tp46
Rp47
sg14
Nsg15
(dp48
g44
F1.0
ssbg2
(g3
g4
Ntp49
Rp50
(dp51
g8
F2.000001018132025e-07
sg9
g2
(g10
g11
F9.395482011634635e-08
tp52
Rp53
sg14
Nsg15
(dp54
g50
F1.0
ssbg2
(g3
g4
Ntp55
Rp56
(dp57
g8
F1.3737877502251195e-09
sg9
g2
(g10
g11
F1.2401133384968029e-09
tp58
Rp59
sg14
Nsg15
(dp60
g56
F1.0
ssbF0.0
F0.0
F1.2904
tp61
sS'eq0b_eq3j_400_600_mht_200_400'
p62
(g2
(g3
g4
Ntp63
Rp64
(dp65
g8
F835.5638427734375
sg9
g2
(g10
g11
F147.62957867581957
tp66
Rp67
sg14
Nsg15
(dp68
g64
F1.0
ssbg2
(g3
g4
Ntp69
Rp70
(dp71
g8
F356.978271484375
sg9
g2
(g10
g11
F61.56640818813048
tp72
Rp73
sg14
Nsg15
(dp74
g70
F1.0
ssbg2
(g3
g4
Ntp75
Rp76
(dp77
g8
F473.5026550292969
sg9
g2
(g10
g11
F67.13282310092433
tp78
Rp79
sg14
Nsg15
(dp80
g76
F1.0
ssbg2
(g3
g4
Ntp81
Rp82
(dp83
g8
F5.082902908325195
sg9
g2
(g10
g11
F4.625474367301
tp84
Rp85
sg14
Nsg15
(dp86
g82
F1.0
ssbF851.0
F29.171904291629644
F29.171904291629644
tp87
sS'eq1b_ge2a_200_400_mht_200_Inf'
p88
(g2
(g3
g4
Ntp89
Rp90
(dp91
g8
F1671.233154296875
sg9
g2
(g10
g11
F185.09398288437148
tp92
Rp93
sg14
Nsg15
(dp94
g90
F1.0
ssbg2
(g3
g4
Ntp95
Rp96
(dp97
g8
F1079.8717041015625
sg9
g2
(g10
g11
F80.75894759831569
tp98
Rp99
sg14
Nsg15
(dp100
g96
F1.0
ssbg2
(g3
g4
Ntp101
Rp102
(dp103
g8
F579.6243896484375
sg9
g2
(g10
g11
F49.03506092284409
tp104
Rp105
sg14
Nsg15
(dp106
g102
F1.0
ssbg2
(g3
g4
Ntp107
Rp108
(dp109
g8
F11.736900329589844
sg9
g2
(g10
g11
F6.852500286582432
tp110
Rp111
sg14
Nsg15
(dp112
g108
F1.0
ssbF2057.0
F45.35416188179427
F45.35416188179427
tp113
sS'eq2b_ge2a_600_900_mht_200_400'
p114
(g2
(g3
g4
Ntp115
Rp116
(dp117
g8
F0.8181658387184143
sg9
g2
(g10
g11
F0.1531050922142447
tp118
Rp119
sg14
Nsg15
(dp120
g116
F1.0
ssbg2
(g3
g4
Ntp121
Rp122
(dp123
g8
F0.7114872932434082
sg9
g2
(g10
g11
F0.14204590560505517
tp124
Rp125
sg14
Nsg15
(dp126
g122
F1.0
ssbg2
(g3
g4
Ntp127
Rp128
(dp129
g8
F0.1066785454750061
sg9
g2
(g10
g11
F0.021804316457053722
tp130
Rp131
sg14
Nsg15
(dp132
g128
F1.0
ssbg2
(g3
g4
Ntp133
Rp134
(dp135
g8
F1.3427588207992613e-10
sg9
g2
(g10
g11
F1.679350492833389e-10
tp136
Rp137
sg14
Nsg15
(dp138
g134
F1.0
ssbF1.0
F0.6321
F1.7505000000000002
tp139
sS'eq0b_eq5j_900_1200_mht_700_750'
p140
(g2
(g3
g4
Ntp141
Rp142
(dp143
g8
F1.4819773435592651
sg9
g2
(g10
g11
F0.6255327624333048
tp144
Rp145
sg14
Nsg15
(dp146
g142
F1.0
ssbg2
(g3
g4
Ntp147
Rp148
(dp149
g8
F0.3560536801815033
sg9
g2
(g10
g11
F0.18175551851861682
tp150
Rp151
sg14
Nsg15
(dp152
g148
F1.0
ssbg2
(g3
g4
Ntp153
Rp154
(dp155
g8
F1.1259236335754395
sg9
g2
(g10
g11
F0.4933427120726355
tp156
Rp157
sg14
Nsg15
(dp158
g154
F1.0
ssbg2
(g3
g4
Ntp159
Rp160
(dp161
g8
F3.4656774672292556e-10
sg9
g2
(g10
g11
F3.21221413000089e-10
tp162
Rp163
sg14
Nsg15
(dp164
g160
F1.0
ssbF1.0
F0.6321
F1.7505000000000002
tp165
sS'eq1b_ge6j_900_1200_mht_400_600'
p166
(g2
(g3
g4
Ntp167
Rp168
(dp169
g8
F1.7732255458831787
sg9
g2
(g10
g11
F0.6141900238329963
tp170
Rp171
sg14
Nsg15
(dp172
g168
F1.0
ssbg2
(g3
g4
Ntp173
Rp174
(dp175
g8
F0.8497052192687988
sg9
g2
(g10
g11
F0.17454909920668993
tp176
Rp177
sg14
Nsg15
(dp178
g174
F1.0
ssbg2
(g3
g4
Ntp179
Rp180
(dp181
g8
F0.8528091907501221
sg9
g2
(g10
g11
F0.4114288293746866
tp182
Rp183
sg14
Nsg15
(dp184
g180
F1.0
ssbg2
(g3
g4
Ntp185
Rp186
(dp187
g8
F0.0707111731171608
sg9
g2
(g10
g11
F0.056507534987871665
tp188
Rp189
sg14
Nsg15
(dp190
g186
F1.0
ssbF3.0
F1.8964
F2.3011999999999997
tp191
sS'eq0b_eq3j_1200_Inf_mht_900_950'
p192
(g2
(g3
g4
Ntp193
Rp194
(dp195
g8
F2.7439463138580322
sg9
g2
(g10
g11
F1.9493869698203763
tp196
Rp197
sg14
Nsg15
(dp198
g194
F1.0
ssbg2
(g3
g4
Ntp199
Rp200
(dp201
g8
F0.41727250814437866
sg9
g2
(g10
g11
F0.3454793535569541
tp202
Rp203
sg14
Nsg15
(dp204
g200
F1.0
ssbg2
(g3
g4
Ntp205
Rp206
(dp207
g8
F2.326673746109009
sg9
g2
(g10
g11
F1.62831167955685
tp208
Rp209
sg14
Nsg15
(dp210
g206
F1.0
ssbg2
(g3
g4
Ntp211
Rp212
(dp213
g8
F7.41558037198331e-10
sg9
g2
(g10
g11
F6.660609670995472e-10
tp214
Rp215
sg14
Nsg15
(dp216
g212
F1.0
ssbF2.0
F1.2642
F2.2504
tp217
sS'eq0b_ge2a_400_600_mht_200_400'
p218
(g2
(g3
g4
Ntp219
Rp220
(dp221
g8
F361.3143005371094
sg9
g2
(g10
g11
F46.85956745959143
tp222
Rp223
sg14
Nsg15
(dp224
g220
F1.0
ssbg2
(g3
g4
Ntp225
Rp226
(dp227
g8
F166.05047607421875
sg9
g2
(g10
g11
F23.74384389016791
tp228
Rp229
sg14
Nsg15
(dp230
g226
F1.0
ssbg2
(g3
g4
Ntp231
Rp232
(dp233
g8
F195.26380920410156
sg9
g2
(g10
g11
F27.988294999560477
tp234
Rp235
sg14
Nsg15
(dp236
g232
F1.0
ssbg2
(g3
g4
Ntp237
Rp238
(dp239
g8
F1.944910508200337e-07
sg9
g2
(g10
g11
F1.5213954251013482e-07
tp240
Rp241
sg14
Nsg15
(dp242
g238
F1.0
ssbF360.0
F18.973665961010276
F18.973665961010276
tp243
sS'eq2b_ge6j_1200_Inf_mht_400_600'
p244
(g2
(g3
g4
Ntp245
Rp246
(dp247
g8
F0.20820435881614685
sg9
g2
(g10
g11
F0.04659302939529986
tp248
Rp249
sg14
Nsg15
(dp250
g246
F1.0
ssbg2
(g3
g4
Ntp251
Rp252
(dp253
g8
F0.13069626688957214
sg9
g2
(g10
g11
F0.033918914012044964
tp254
Rp255
sg14
Nsg15
(dp256
g252
F1.0
ssbg2
(g3
g4
Ntp257
Rp258
(dp259
g8
F0.07433802634477615
sg9
g2
(g10
g11
F0.018368458022840466
tp260
Rp261
sg14
Nsg15
(dp262
g258
F1.0
ssbg2
(g3
g4
Ntp263
Rp264
(dp265
g8
F0.0031700709369033575
sg9
g2
(g10
g11
F0.0029890539418512777
tp266
Rp267
sg14
Nsg15
(dp268
g264
F1.0
ssbF0.0
F0.0
F1.2904
tp269
sS'eq0b_eq3j_900_1200_mht_400_600'
p270
(g2
(g3
g4
Ntp271
Rp272
(dp273
g8
F22.94717788696289
sg9
g2
(g10
g11
F4.364212845378376
tp274
Rp275
sg14
Nsg15
(dp276
g272
F1.0
ssbg2
(g3
g4
Ntp277
Rp278
(dp279
g8
F6.367346286773682
sg9
g2
(g10
g11
F1.4441923314341967
tp280
Rp281
sg14
Nsg15
(dp282
g278
F1.0
ssbg2
(g3
g4
Ntp283
Rp284
(dp285
g8
F16.579830169677734
sg9
g2
(g10
g11
F2.185649573100977
tp286
Rp287
sg14
Nsg15
(dp288
g284
F1.0
ssbg2
(g3
g4
Ntp289
Rp290
(dp291
g8
F4.810087439466315e-09
sg9
g2
(g10
g11
F2.965143570452437e-09
tp292
Rp293
sg14
Nsg15
(dp294
g290
F1.0
ssbF26.0
F5.200900000000001
F5.811
tp295
sS'eq3b_ge6j_1200_Inf_mht_600_900'
p296
(g2
(g3
g4
Ntp297
Rp298
(dp299
g8
F0.010607783682644367
sg9
g2
(g10
g11
F0.004948167208970608
tp300
Rp301
sg14
Nsg15
(dp302
g298
F1.0
ssbg2
(g3
g4
Ntp303
Rp304
(dp305
g8
F0.004623072687536478
sg9
g2
(g10
g11
F0.0017576072659155765
tp306
Rp307
sg14
Nsg15
(dp308
g304
F1.0
ssbg2
(g3
g4
Ntp309
Rp310
(dp311
g8
F0.0058301337994635105
sg9
g2
(g10
g11
F0.004151433505136769
tp312
Rp313
sg14
Nsg15
(dp314
g310
F1.0
ssbg2
(g3
g4
Ntp315
Rp316
(dp317
g8
F0.00015457715198863298
sg9
g2
(g10
g11
F0.00014574521305164555
tp318
Rp319
sg14
Nsg15
(dp320
g316
F1.0
ssbF1.0
F0.6321
F1.7505000000000002
tp321
sS'eq1b_eq4j_900_1200_mht_200_400'
p322
(g2
(g3
g4
Ntp323
Rp324
(dp325
g8
F6.538768768310547
sg9
g2
(g10
g11
F0.7643764732265546
tp326
Rp327
sg14
Nsg15
(dp328
g324
F1.0
ssbg2
(g3
g4
Ntp329
Rp330
(dp331
g8
F3.0751588344573975
sg9
g2
(g10
g11
F0.5110293127972753
tp332
Rp333
sg14
Nsg15
(dp334
g330
F1.0
ssbg2
(g3
g4
Ntp335
Rp336
(dp337
g8
F3.4636096954345703
sg9
g2
(g10
g11
F0.4443766722399531
tp338
Rp339
sg14
Nsg15
(dp340
g336
F1.0
ssbg2
(g3
g4
Ntp341
Rp342
(dp343
g8
F1.5777337214473164e-09
sg9
g2
(g10
g11
F1.2469199294527133e-09
tp344
Rp345
sg14
Nsg15
(dp346
g342
F1.0
ssbF10.0
F3.2236000000000002
F3.805999999999999
tp347
sS'eq1b_eq5j_600_900_mht_200_400'
p348
(g2
(g3
g4
Ntp349
Rp350
(dp351
g8
F24.055522918701172
sg9
g2
(g10
g11
F3.40351273330676
tp352
Rp353
sg14
Nsg15
(dp354
g350
F1.0
ssbg2
(g3
g4
Ntp355
Rp356
(dp357
g8
F16.392135620117188
sg9
g2
(g10
g11
F2.5490140691872516
tp358
Rp359
sg14
Nsg15
(dp360
g356
F1.0
ssbg2
(g3
g4
Ntp361
Rp362
(dp363
g8
F7.663388252258301
sg9
g2
(g10
g11
F0.9799765712506576
tp364
Rp365
sg14
Nsg15
(dp366
g362
F1.0
ssbg2
(g3
g4
Ntp367
Rp368
(dp369
g8
F4.211637261164469e-08
sg9
g2
(g10
g11
F3.475718101282317e-08
tp370
Rp371
sg14
Nsg15
(dp372
g368
F1.0
ssbF24.0
F4.6751000000000005
F5.3278
tp373
sS'eq1b_ge2a_900_Inf_mht_200_900'
p374
(g2
(g3
g4
Ntp375
Rp376
(dp377
g8
F0.4678189158439636
sg9
g2
(g10
g11
F0.17982587047691315
tp378
Rp379
sg14
Nsg15
(dp380
g376
F1.0
ssbg2
(g3
g4
Ntp381
Rp382
(dp383
g8
F0.12063837796449661
sg9
g2
(g10
g11
F0.04276909827949459
tp384
Rp385
sg14
Nsg15
(dp386
g382
F1.0
ssbg2
(g3
g4
Ntp387
Rp388
(dp389
g8
F0.3471805453300476
sg9
g2
(g10
g11
F0.15055718252531475
tp390
Rp391
sg14
Nsg15
(dp392
g388
F1.0
ssbg2
(g3
g4
Ntp393
Rp394
(dp395
g8
F0.0
sg9
g2
(g10
g11
F0.0
tp396
Rp397
sg14
Nsg15
(dp398
g394
F1.0
ssbF0.0
F0.0
F1.2904
tp399
sS'eq1b_eq3j_200_400_mht_200_Inf'
p400
(g2
(g3
g4
Ntp401
Rp402
(dp403
g8
F277.8030090332031
sg9
g2
(g10
g11
F52.15837960002209
tp404
Rp405
sg14
Nsg15
(dp406
g402
F1.0
ssbg2
(g3
g4
Ntp407
Rp408
(dp409
g8
F198.99710083007812
sg9
g2
(g10
g11
F26.094893589286823
tp410
Rp411
sg14
Nsg15
(dp412
g408
F1.0
ssbg2
(g3
g4
Ntp413
Rp414
(dp415
g8
F78.80590057373047
sg9
g2
(g10
g11
F8.70946085632709
tp416
Rp417
sg14
Nsg15
(dp418
g414
F1.0
ssbg2
(g3
g4
Ntp419
Rp420
(dp421
g8
F2.528950062696822e-06
sg9
g2
(g10
g11
F1.5958244270899545e-06
tp422
Rp423
sg14
Nsg15
(dp424
g420
F1.0
ssbF335.0
F18.303005217723125
F18.303005217723125
tp425
sS'eq3b_eq5j_900_Inf_mht_200_400'
p426
(g2
(g3
g4
Ntp427
Rp428
(dp429
g8
F0.13409897685050964
sg9
g2
(g10
g11
F0.02336700247943547
tp430
Rp431
sg14
Nsg15
(dp432
g428
F1.0
ssbg2
(g3
g4
Ntp433
Rp434
(dp435
g8
F0.10031632333993912
sg9
g2
(g10
g11
F0.020854652741782564
tp436
Rp437
sg14
Nsg15
(dp438
g434
F1.0
ssbg2
(g3
g4
Ntp439
Rp440
(dp441
g8
F0.033782653510570526
sg9
g2
(g10
g11
F0.007749225863797568
tp442
Rp443
sg14
Nsg15
(dp444
g440
F1.0
ssbg2
(g3
g4
Ntp445
Rp446
(dp447
g8
F3.1441554221300905e-11
sg9
g2
(g10
g11
F3.047371921011865e-11
tp448
Rp449
sg14
Nsg15
(dp450
g446
F1.0
ssbF0.0
F0.0
F1.2904
tp451
sS'eq3b_ge6j_1200_Inf_mht_900_950'
p452
(g2
(g3
g4
Ntp453
Rp454
(dp455
g8
F0.002952521201223135
sg9
g2
(g10
g11
F0.0027411144725119217
tp456
Rp457
sg14
Nsg15
(dp458
g454
F1.0
ssbg2
(g3
g4
Ntp459
Rp460
(dp461
g8
F0.0010301594156771898
sg9
g2
(g10
g11
F0.0004995217163240482
tp462
Rp463
sg14
Nsg15
(dp464
g460
F1.0
ssbg2
(g3
g4
Ntp465
Rp466
(dp467
g8
F0.001877041650004685
sg9
g2
(g10
g11
F0.0025661113232426833
tp468
Rp469
sg14
Nsg15
(dp470
g466
F1.0
ssbg2
(g3
g4
Ntp471
Rp472
(dp473
g8
F4.532019011094235e-05
sg9
g2
(g10
g11
F4.27331085112098e-05
tp474
Rp475
sg14
Nsg15
(dp476
g472
F1.0
ssbF0.0
F0.0
F1.2904
tp477
sS'eq2b_ge6j_1200_Inf_mht_600_900'
p478
(g2
(g3
g4
Ntp479
Rp480
(dp481
g8
F0.07735177129507065
sg9
g2
(g10
g11
F0.040100112520212235
tp482
Rp483
sg14
Nsg15
(dp484
g480
F1.0
ssbg2
(g3
g4
Ntp485
Rp486
(dp487
g8
F0.02639942616224289
sg9
g2
(g10
g11
F0.00972328448689352
tp488
Rp489
sg14
Nsg15
(dp490
g486
F1.0
ssbg2
(g3
g4
Ntp491
Rp492
(dp493
g8
F0.04977642372250557
sg9
g2
(g10
g11
F0.03650886530534661
tp494
Rp495
sg14
Nsg15
(dp496
g492
F1.0
ssbg2
(g3
g4
Ntp497
Rp498
(dp499
g8
F0.0011759208282455802
sg9
g2
(g10
g11
F0.0011087362970794736
tp500
Rp501
sg14
Nsg15
(dp502
g498
F1.0
ssbF0.0
F0.0
F1.2904
tp503
sS'eq0b_eq2j_400_600_mht_500_550'
p504
(g2
(g3
g4
Ntp505
Rp506
(dp507
g8
F7.123520617824397e-07
sg9
g2
(g10
g11
F1.7653675721890217e-07
tp508
Rp509
sg14
Nsg15
(dp510
g506
F1.0
ssbg2
(g3
g4
Ntp511
Rp512
(dp513
g8
F2.7573844363359967e-07
sg9
g2
(g10
g11
F6.604021116437958e-08
tp514
Rp515
sg14
Nsg15
(dp516
g512
F1.0
ssbg2
(g3
g4
Ntp517
Rp518
(dp519
g8
F4.320371829180658e-07
sg9
g2
(g10
g11
F9.224068538429901e-08
tp520
Rp521
sg14
Nsg15
(dp522
g518
F1.0
ssbg2
(g3
g4
Ntp523
Rp524
(dp525
g8
F4.576399703637435e-09
sg9
g2
(g10
g11
F3.182918803346614e-09
tp526
Rp527
sg14
Nsg15
(dp528
g524
F1.0
ssbF0.0
F0.0
F1.2904
tp529
sS'eq0b_eq4j_900_1200_mht_400_600'
p530
(g2
(g3
g4
Ntp531
Rp532
(dp533
g8
F17.992473602294922
sg9
g2
(g10
g11
F2.4041965670078853
tp534
Rp535
sg14
Nsg15
(dp536
g532
F1.0
ssbg2
(g3
g4
Ntp537
Rp538
(dp539
g8
F5.845796585083008
sg9
g2
(g10
g11
F1.1054113452685996
tp540
Rp541
sg14
Nsg15
(dp542
g538
F1.0
ssbg2
(g3
g4
Ntp543
Rp544
(dp545
g8
F12.146677017211914
sg9
g2
(g10
g11
F1.263261923939989
tp546
Rp547
sg14
Nsg15
(dp548
g544
F1.0
ssbg2
(g3
g4
Ntp549
Rp550
(dp551
g8
F4.338003734005724e-09
sg9
g2
(g10
g11
F3.313238662922893e-09
tp552
Rp553
sg14
Nsg15
(dp554
g550
F1.0
ssbF19.0
F4.1806
F4.8247
tp555
sS'eq3b_eq3j_600_Inf_mht_700_750'
p556
(g2
(g3
g4
Ntp557
Rp558
(dp559
g8
F0.007383110001683235
sg9
g2
(g10
g11
F0.003676864462897683
tp560
Rp561
sg14
Nsg15
(dp562
g558
F1.0
ssbg2
(g3
g4
Ntp563
Rp564
(dp565
g8
F0.0011658633593469858
sg9
g2
(g10
g11
F0.0006582310302985571
tp566
Rp567
sg14
Nsg15
(dp568
g564
F1.0
ssbg2
(g3
g4
Ntp569
Rp570
(dp571
g8
F0.006217246409505606
sg9
g2
(g10
g11
F0.003095640255015431
tp572
Rp573
sg14
Nsg15
(dp574
g570
F1.0
ssbg2
(g3
g4
Ntp575
Rp576
(dp577
g8
F6.023878010991135e-12
sg9
g2
(g10
g11
F5.653906376735213e-12
tp578
Rp579
sg14
Nsg15
(dp580
g576
F1.0
ssbF0.0
F0.0
F1.2904
tp581
sS'eq2b_eq5j_1200_Inf_mht_600_900'
p582
(g2
(g3
g4
Ntp583
Rp584
(dp585
g8
F0.05494483932852745
sg9
g2
(g10
g11
F0.018467586264439152
tp586
Rp587
sg14
Nsg15
(dp588
g584
F1.0
ssbg2
(g3
g4
Ntp589
Rp590
(dp591
g8
F0.017134811729192734
sg9
g2
(g10
g11
F0.005237061599291025
tp592
Rp593
sg14
Nsg15
(dp594
g590
F1.0
ssbg2
(g3
g4
Ntp595
Rp596
(dp597
g8
F0.03781002759933472
sg9
g2
(g10
g11
F0.014521748425584902
tp598
Rp599
sg14
Nsg15
(dp600
g596
F1.0
ssbg2
(g3
g4
Ntp601
Rp602
(dp603
g8
F1.245199256205698e-11
sg9
g2
(g10
g11
F1.096985646387747e-11
tp604
Rp605
sg14
Nsg15
(dp606
g602
F1.0
ssbF0.0
F0.0
F1.2904
tp607
sS'eq1b_ge2a_600_900_mht_700_750'
p608
(g2
(g3
g4
Ntp609
Rp610
(dp611
g8
F4.00000402578371e-07
sg9
g2
(g10
g11
F3.942948777416673e-07
tp612
Rp613
sg14
Nsg15
(dp614
g610
F1.0
ssbg2
(g3
g4
Ntp615
Rp616
(dp617
g8
F2.000052461426094e-07
sg9
g2
(g10
g11
F1.3952171512023913e-07
tp618
Rp619
sg14
Nsg15
(dp620
g616
F1.0
ssbg2
(g3
g4
Ntp621
Rp622
(dp623
g8
F1.9999517064661632e-07
sg9
g2
(g10
g11
F1.393052105893076e-07
tp624
Rp625
sg14
Nsg15
(dp626
g622
F1.0
ssbg2
(g3
g4
Ntp627
Rp628
(dp629
g8
F3.269790698373935e-17
sg9
g2
(g10
g11
F2.751965178639991e-17
tp630
Rp631
sg14
Nsg15
(dp632
g628
F1.0
ssbF0.0
F0.0
F1.2904
tp633
sS'eq1b_eq4j_400_600_mht_500_550'
p634
(g2
(g3
g4
Ntp635
Rp636
(dp637
g8
F4.142402190154826e-07
sg9
g2
(g10
g11
F2.036596670788031e-07
tp638
Rp639
sg14
Nsg15
(dp640
g636
F1.0
ssbg2
(g3
g4
Ntp641
Rp642
(dp643
g8
F2.0000007339149306e-07
sg9
g2
(g10
g11
F6.158237850461175e-08
tp644
Rp645
sg14
Nsg15
(dp646
g642
F1.0
ssbg2
(g3
g4
Ntp647
Rp648
(dp649
g8
F1.9999998812636477e-07
sg9
g2
(g10
g11
F1.0318705295149884e-07
tp650
Rp651
sg14
Nsg15
(dp652
g648
F1.0
ssbg2
(g3
g4
Ntp653
Rp654
(dp655
g8
F1.4240184142977341e-08
sg9
g2
(g10
g11
F1.0168074309406835e-08
tp656
Rp657
sg14
Nsg15
(dp658
g654
F1.0
ssbF0.0
F0.0
F1.2904
tp659
sS'eq3b_eq4j_600_900_mht_600_700'
p660
(g2
(g3
g4
Ntp661
Rp662
(dp663
g8
F0.0195718165487051
sg9
g2
(g10
g11
F0.005160503737078988
tp664
Rp665
sg14
Nsg15
(dp666
g662
F1.0
ssbg2
(g3
g4
Ntp667
Rp668
(dp669
g8
F0.006647256202995777
sg9
g2
(g10
g11
F0.0015803185565183553
tp670
Rp671
sg14
Nsg15
(dp672
g668
F1.0
ssbg2
(g3
g4
Ntp673
Rp674
(dp675
g8
F0.012924560345709324
sg9
g2
(g10
g11
F0.0033503073838786384
tp676
Rp677
sg14
Nsg15
(dp678
g674
F1.0
ssbg2
(g3
g4
Ntp679
Rp680
(dp681
g8
F2.069630231082975e-11
sg9
g2
(g10
g11
F1.8710944941203975e-11
tp682
Rp683
sg14
Nsg15
(dp684
g680
F1.0
ssbF0.0
F0.0
F1.2904
tp685
sS'eq1b_eq5j_1200_Inf_mht_400_600'
p686
(g2
(g3
g4
Ntp687
Rp688
(dp689
g8
F0.7405309677124023
sg9
g2
(g10
g11
F0.15352703178290014
tp690
Rp691
sg14
Nsg15
(dp692
g688
F1.0
ssbg2
(g3
g4
Ntp693
Rp694
(dp695
g8
F0.2691132426261902
sg9
g2
(g10
g11
F0.06918714219287679
tp696
Rp697
sg14
Nsg15
(dp698
g694
F1.0
ssbg2
(g3
g4
Ntp699
Rp700
(dp701
g8
F0.47141769528388977
sg9
g2
(g10
g11
F0.09494067347372662
tp702
Rp703
sg14
Nsg15
(dp704
g700
F1.0
ssbg2
(g3
g4
Ntp705
Rp706
(dp707
g8
F1.6686547976707544e-10
sg9
g2
(g10
g11
F1.469949762379461e-10
tp708
Rp709
sg14
Nsg15
(dp710
g706
F1.0
ssbF1.0
F0.6321
F1.7505000000000002
tp711
sS'eq3b_eq4j_400_600_mht_400_500'
p712
(g2
(g3
g4
Ntp713
Rp714
(dp715
g8
F0.21700114011764526
sg9
g2
(g10
g11
F0.035588548147873766
tp716
Rp717
sg14
Nsg15
(dp718
g714
F1.0
ssbg2
(g3
g4
Ntp719
Rp720
(dp721
g8
F0.14063920080661774
sg9
g2
(g10
g11
F0.025799354311441612
tp722
Rp723
sg14
Nsg15
(dp724
g720
F1.0
ssbg2
(g3
g4
Ntp725
Rp726
(dp727
g8
F0.06384295225143433
sg9
g2
(g10
g11
F0.012755894903882016
tp728
Rp729
sg14
Nsg15
(dp730
g726
F1.0
ssbg2
(g3
g4
Ntp731
Rp732
(dp733
g8
F0.012518977746367455
sg9
g2
(g10
g11
F0.009576746544078524
tp734
Rp735
sg14
Nsg15
(dp736
g732
F1.0
ssbF0.0
F0.0
F1.2904
tp737
sS'eq3b_ge2a_600_Inf_mht_200_400'
p738
(g2
(g3
g4
Ntp739
Rp740
(dp741
g8
F0.1133866012096405
sg9
g2
(g10
g11
F0.025045170805145504
tp742
Rp743
sg14
Nsg15
(dp744
g740
F1.0
ssbg2
(g3
g4
Ntp745
Rp746
(dp747
g8
F0.10520138591527939
sg9
g2
(g10
g11
F0.024190002730851572
tp748
Rp749
sg14
Nsg15
(dp750
g746
F1.0
ssbg2
(g3
g4
Ntp751
Rp752
(dp753
g8
F0.008185216225683689
sg9
g2
(g10
g11
F0.0022094364321357876
tp754
Rp755
sg14
Nsg15
(dp756
g752
F1.0
ssbg2
(g3
g4
Ntp757
Rp758
(dp759
g8
F1.9811511806078208e-11
sg9
g2
(g10
g11
F2.6507548402234746e-11
tp760
Rp761
sg14
Nsg15
(dp762
g758
F1.0
ssbF1.0
F0.6321
F1.7505000000000002
tp763
sS'eq1b_eq5j_1200_Inf_mht_600_900'
p764
(g2
(g3
g4
Ntp765
Rp766
(dp767
g8
F0.3369828164577484
sg9
g2
(g10
g11
F0.12342084458410335
tp768
Rp769
sg14
Nsg15
(dp770
g766
F1.0
ssbg2
(g3
g4
Ntp771
Rp772
(dp773
g8
F0.09134795516729355
sg9
g2
(g10
g11
F0.033991242953455354
tp774
Rp775
sg14
Nsg15
(dp776
g772
F1.0
ssbg2
(g3
g4
Ntp777
Rp778
(dp779
g8
F0.24563485383987427
sg9
g2
(g10
g11
F0.09479877354456272
tp780
Rp781
sg14
Nsg15
(dp782
g778
F1.0
ssbg2
(g3
g4
Ntp783
Rp784
(dp785
g8
F7.563833587242996e-11
sg9
g2
(g10
g11
F6.663384861847675e-11
tp786
Rp787
sg14
Nsg15
(dp788
g784
F1.0
ssbF0.0
F0.0
F1.2904
tp789
sS'eq0b_eq4j_400_600_mht_400_500'
p790
(g2
(g3
g4
Ntp791
Rp792
(dp793
g8
F60.95134353637695
sg9
g2
(g10
g11
F10.364483563171394
tp794
Rp795
sg14
Nsg15
(dp796
g792
F1.0
ssbg2
(g3
g4
Ntp797
Rp798
(dp799
g8
F19.63759994506836
sg9
g2
(g10
g11
F3.2070754983244663
tp800
Rp801
sg14
Nsg15
(dp802
g798
F1.0
ssbg2
(g3
g4
Ntp803
Rp804
(dp805
g8
F37.764469146728516
sg9
g2
(g10
g11
F7.104874605794426
tp806
Rp807
sg14
Nsg15
(dp808
g804
F1.0
ssbg2
(g3
g4
Ntp809
Rp810
(dp811
g8
F3.549274444580078
sg9
g2
(g10
g11
F2.474830205468334
tp812
Rp813
sg14
Nsg15
(dp814
g810
F1.0
ssbF42.0
F6.48074069840786
F6.48074069840786
tp815
sS'eq3b_ge6j_900_1200_mht_200_400'
p816
(g2
(g3
g4
Ntp817
Rp818
(dp819
g8
F0.40105903148651123
sg9
g2
(g10
g11
F0.09586741767353923
tp820
Rp821
sg14
Nsg15
(dp822
g818
F1.0
ssbg2
(g3
g4
Ntp823
Rp824
(dp825
g8
F0.3441793620586395
sg9
g2
(g10
g11
F0.07299412490362374
tp826
Rp827
sg14
Nsg15
(dp828
g824
F1.0
ssbg2
(g3
g4
Ntp829
Rp830
(dp831
g8
F0.041061028838157654
sg9
g2
(g10
g11
F0.016459630582646434
tp832
Rp833
sg14
Nsg15
(dp834
g830
F1.0
ssbg2
(g3
g4
Ntp835
Rp836
(dp837
g8
F0.015818646177649498
sg9
g2
(g10
g11
F0.014168521695591402
tp838
Rp839
sg14
Nsg15
(dp840
g836
F1.0
ssbF1.0
F0.6321
F1.7505000000000002
tp841
sS'eq3b_eq4j_900_Inf_mht_200_400'
p842
(g2
(g3
g4
Ntp843
Rp844
(dp845
g8
F0.08177788555622101
sg9
g2
(g10
g11
F0.012809390528107142
tp846
Rp847
sg14
Nsg15
(dp848
g844
F1.0
ssbg2
(g3
g4
Ntp849
Rp850
(dp851
g8
F0.04925922304391861
sg9
g2
(g10
g11
F0.009859965494128875
tp852
Rp853
sg14
Nsg15
(dp854
g850
F1.0
ssbg2
(g3
g4
Ntp855
Rp856
(dp857
g8
F0.0325186587870121
sg9
g2
(g10
g11
F0.006317038420098232
tp858
Rp859
sg14
Nsg15
(dp860
g856
F1.0
ssbg2
(g3
g4
Ntp861
Rp862
(dp863
g8
F1.9564671063787564e-11
sg9
g2
(g10
g11
F1.8002284727636298e-11
tp864
Rp865
sg14
Nsg15
(dp866
g862
F1.0
ssbF0.0
F0.0
F1.2904
tp867
sS'eq3b_eq3j_600_Inf_mht_200_400'
p868
(g2
(g3
g4
Ntp869
Rp870
(dp871
g8
F0.044173259288072586
sg9
g2
(g10
g11
F0.008390387569474423
tp872
Rp873
sg14
Nsg15
(dp874
g870
F1.0
ssbg2
(g3
g4
Ntp875
Rp876
(dp877
g8
F0.018382854759693146
sg9
g2
(g10
g11
F0.003266148861250934
tp878
Rp879
sg14
Nsg15
(dp880
g876
F1.0
ssbg2
(g3
g4
Ntp881
Rp882
(dp883
g8
F0.02579040452837944
sg9
g2
(g10
g11
F0.004118159953452397
tp884
Rp885
sg14
Nsg15
(dp886
g882
F1.0
ssbg2
(g3
g4
Ntp887
Rp888
(dp889
g8
F3.530028352960457e-11
sg9
g2
(g10
g11
F2.3848352594671606e-11
tp890
Rp891
sg14
Nsg15
(dp892
g888
F1.0
ssbF0.0
F0.0
F1.2904
tp893
sS'eq2b_eq3j_600_900_mht_400_600'
p894
(g2
(g3
g4
Ntp895
Rp896
(dp897
g8
F1.1807303428649902
sg9
g2
(g10
g11
F0.2298124323915616
tp898
Rp899
sg14
Nsg15
(dp900
g896
F1.0
ssbg2
(g3
g4
Ntp901
Rp902
(dp903
g8
F0.5408169031143188
sg9
g2
(g10
g11
F0.1135062178962439
tp904
Rp905
sg14
Nsg15
(dp906
g902
F1.0
ssbg2
(g3
g4
Ntp907
Rp908
(dp909
g8
F0.6399134397506714
sg9
g2
(g10
g11
F0.10546532590040877
tp910
Rp911
sg14
Nsg15
(dp912
g908
F1.0
ssbg2
(g3
g4
Ntp913
Rp914
(dp915
g8
F9.525163990886654e-10
sg9
g2
(g10
g11
F7.663587187094678e-10
tp916
Rp917
sg14
Nsg15
(dp918
g914
F1.0
ssbF2.0
F1.2642
F2.2504
tp919
sS'eq2b_ge2a_900_Inf_mht_200_900'
p920
(g2
(g3
g4
Ntp921
Rp922
(dp923
g8
F0.07627688348293304
sg9
g2
(g10
g11
F0.01770460507938699
tp924
Rp925
sg14
Nsg15
(dp926
g922
F1.0
ssbg2
(g3
g4
Ntp927
Rp928
(dp929
g8
F0.04938136786222458
sg9
g2
(g10
g11
F0.010948266112100934
tp930
Rp931
sg14
Nsg15
(dp932
g928
F1.0
ssbg2
(g3
g4
Ntp933
Rp934
(dp935
g8
F0.026895515620708466
sg9
g2
(g10
g11
F0.012299554753385929
tp936
Rp937
sg14
Nsg15
(dp938
g934
F1.0
ssbg2
(g3
g4
Ntp939
Rp940
(dp941
g8
F0.0
sg9
g2
(g10
g11
F0.0
tp942
Rp943
sg14
Nsg15
(dp944
g940
F1.0
ssbF0.0
F0.0
F1.2904
tp945
sS'eq3b_eq5j_900_Inf_mht_600_700'
p946
(g2
(g3
g4
Ntp947
Rp948
(dp949
g8
F0.02480202727019787
sg9
g2
(g10
g11
F0.008548381377590071
tp950
Rp951
sg14
Nsg15
(dp952
g948
F1.0
ssbg2
(g3
g4
Ntp953
Rp954
(dp955
g8
F0.00925123505294323
sg9
g2
(g10
g11
F0.002650431785003864
tp956
Rp957
sg14
Nsg15
(dp958
g954
F1.0
ssbg2
(g3
g4
Ntp959
Rp960
(dp961
g8
F0.015550792217254639
sg9
g2
(g10
g11
F0.007131386678106367
tp962
Rp963
sg14
Nsg15
(dp964
g960
F1.0
ssbg2
(g3
g4
Ntp965
Rp966
(dp967
g8
F5.75317181047974e-12
sg9
g2
(g10
g11
F5.576078996690038e-12
tp968
Rp969
sg14
Nsg15
(dp970
g966
F1.0
ssbF0.0
F0.0
F1.2904
tp971
sS'eq3b_eq3j_600_Inf_mht_400_600'
p972
(g2
(g3
g4
Ntp973
Rp974
(dp975
g8
F0.04114760085940361
sg9
g2
(g10
g11
F0.00795854935890655
tp976
Rp977
sg14
Nsg15
(dp978
g974
F1.0
ssbg2
(g3
g4
Ntp979
Rp980
(dp981
g8
F0.01955895498394966
sg9
g2
(g10
g11
F0.004126039102816755
tp982
Rp983
sg14
Nsg15
(dp984
g980
F1.0
ssbg2
(g3
g4
Ntp985
Rp986
(dp987
g8
F0.02158864587545395
sg9
g2
(g10
g11
F0.0029812285566056256
tp988
Rp989
sg14
Nsg15
(dp990
g986
F1.0
ssbg2
(g3
g4
Ntp991
Rp992
(dp993
g8
F3.4757696720788545e-11
sg9
g2
(g10
g11
F2.4358079801558738e-11
tp994
Rp995
sg14
Nsg15
(dp996
g992
F1.0
ssbF0.0
F0.0
F1.2904
tp997
sS'eq1b_eq2j_400_600_mht_200_400'
p998
(g2
(g3
g4
Ntp999
Rp1000
(dp1001
g8
F33.182979583740234
sg9
g2
(g10
g11
F8.81767190876509
tp1002
Rp1003
sg14
Nsg15
(dp1004
g1000
F1.0
ssbg2
(g3
g4
Ntp1005
Rp1006
(dp1007
g8
F11.57900333404541
sg9
g2
(g10
g11
F2.8004909766116026
tp1008
Rp1009
sg14
Nsg15
(dp1010
g1006
F1.0
ssbg2
(g3
g4
Ntp1011
Rp1012
(dp1013
g8
F21.377641677856445
sg9
g2
(g10
g11
F5.232529262965757
tp1014
Rp1015
sg14
Nsg15
(dp1016
g1012
F1.0
ssbg2
(g3
g4
Ntp1017
Rp1018
(dp1019
g8
F0.2263360172510147
sg9
g2
(g10
g11
F0.16959234182891855
tp1020
Rp1021
sg14
Nsg15
(dp1022
g1018
F1.0
ssbF33.0
F5.744562646538029
F5.744562646538029
tp1023
sS'eq2b_eq3j_400_600_mht_500_550'
p1024
(g2
(g3
g4
Ntp1025
Rp1026
(dp1027
g8
F4.012252645679837e-07
sg9
g2
(g10
g11
F3.687299436651853e-07
tp1028
Rp1029
sg14
Nsg15
(dp1030
g1026
F1.0
ssbg2
(g3
g4
Ntp1031
Rp1032
(dp1033
g8
F1.9999959022243274e-07
sg9
g2
(g10
g11
F1.2610416535420394e-07
tp1034
Rp1035
sg14
Nsg15
(dp1036
g1032
F1.0
ssbg2
(g3
g4
Ntp1037
Rp1038
(dp1039
g8
F2.0000135236841743e-07
sg9
g2
(g10
g11
F1.3533978684985514e-07
tp1040
Rp1041
sg14
Nsg15
(dp1042
g1038
F1.0
ssbg2
(g3
g4
Ntp1043
Rp1044
(dp1045
g8
F1.2243095426356376e-09
sg9
g2
(g10
g11
F9.323263503126491e-10
tp1046
Rp1047
sg14
Nsg15
(dp1048
g1044
F1.0
ssbF0.0
F0.0
F1.2904
tp1049
sS'eq0b_eq5j_600_900_mht_200_400'
p1050
(g2
(g3
g4
Ntp1051
Rp1052
(dp1053
g8
F70.01283264160156
sg9
g2
(g10
g11
F9.354588195773237
tp1054
Rp1055
sg14
Nsg15
(dp1056
g1052
F1.0
ssbg2
(g3
g4
Ntp1057
Rp1058
(dp1059
g8
F31.97277069091797
sg9
g2
(g10
g11
F5.038689545306832
tp1060
Rp1061
sg14
Nsg15
(dp1062
g1058
F1.0
ssbg2
(g3
g4
Ntp1063
Rp1064
(dp1065
g8
F38.040061950683594
sg9
g2
(g10
g11
F4.673908681529973
tp1066
Rp1067
sg14
Nsg15
(dp1068
g1064
F1.0
ssbg2
(g3
g4
Ntp1069
Rp1070
(dp1071
g8
F1.2210044531002495e-07
sg9
g2
(g10
g11
F9.883022917860177e-08
tp1072
Rp1073
sg14
Nsg15
(dp1074
g1070
F1.0
ssbF48.0
F6.928203230275509
F6.928203230275509
tp1075
sS'eq2b_eq2j_400_600_mht_200_400'
p1076
(g2
(g3
g4
Ntp1077
Rp1078
(dp1079
g8
F1.6188504695892334
sg9
g2
(g10
g11
F0.4501155069245833
tp1080
Rp1081
sg14
Nsg15
(dp1082
g1078
F1.0
ssbg2
(g3
g4
Ntp1083
Rp1084
(dp1085
g8
F0.3700782358646393
sg9
g2
(g10
g11
F0.0997739678339581
tp1086
Rp1087
sg14
Nsg15
(dp1088
g1084
F1.0
ssbg2
(g3
g4
Ntp1089
Rp1090
(dp1091
g8
F1.237769365310669
sg9
g2
(g10
g11
F0.32270770089908607
tp1092
Rp1093
sg14
Nsg15
(dp1094
g1090
F1.0
ssbg2
(g3
g4
Ntp1095
Rp1096
(dp1097
g8
F0.011002887971699238
sg9
g2
(g10
g11
F0.00854289251309796
tp1098
Rp1099
sg14
Nsg15
(dp1100
g1096
F1.0
ssbF5.0
F2.2495
F2.8064
tp1101
sS'eq2b_eq2j_200_400_mht_200_Inf'
p1102
(g2
(g3
g4
Ntp1103
Rp1104
(dp1105
g8
F25.175813674926758
sg9
g2
(g10
g11
F7.082765793746289
tp1106
Rp1107
sg14
Nsg15
(dp1108
g1104
F1.0
ssbg2
(g3
g4
Ntp1109
Rp1110
(dp1111
g8
F11.226499557495117
sg9
g2
(g10
g11
F1.900217372606652
tp1112
Rp1113
sg14
Nsg15
(dp1114
g1110
F1.0
ssbg2
(g3
g4
Ntp1115
Rp1116
(dp1117
g8
F13.942099571228027
sg9
g2
(g10
g11
F2.1805118437622286
tp1118
Rp1119
sg14
Nsg15
(dp1120
g1116
F1.0
ssbg2
(g3
g4
Ntp1121
Rp1122
(dp1123
g8
F0.007214600220322609
sg9
g2
(g10
g11
F0.004143271111887682
tp1124
Rp1125
sg14
Nsg15
(dp1126
g1122
F1.0
ssbF20.0
F4.1690000000000005
F5.3003
tp1127
sS'eq0b_eq3j_400_600_mht_400_500'
p1128
(g2
(g3
g4
Ntp1129
Rp1130
(dp1131
g8
F174.37904357910156
sg9
g2
(g10
g11
F33.206359989465874
tp1132
Rp1133
sg14
Nsg15
(dp1134
g1130
F1.0
ssbg2
(g3
g4
Ntp1135
Rp1136
(dp1137
g8
F55.74380874633789
sg9
g2
(g10
g11
F9.868715984148153
tp1138
Rp1139
sg14
Nsg15
(dp1140
g1136
F1.0
ssbg2
(g3
g4
Ntp1141
Rp1142
(dp1143
g8
F117.5743408203125
sg9
g2
(g10
g11
F18.017112904732407
tp1144
Rp1145
sg14
Nsg15
(dp1146
g1142
F1.0
ssbg2
(g3
g4
Ntp1147
Rp1148
(dp1149
g8
F1.060896873474121
sg9
g2
(g10
g11
F0.7997736849150011
tp1150
Rp1151
sg14
Nsg15
(dp1152
g1148
F1.0
ssbF169.0
F13.0
F13.0
tp1153
sS'eq1b_eq2j_1200_Inf_mht_400_600'
p1154
(g2
(g3
g4
Ntp1155
Rp1156
(dp1157
g8
F0.3784902095794678
sg9
g2
(g10
g11
F0.11534742596602099
tp1158
Rp1159
sg14
Nsg15
(dp1160
g1156
F1.0
ssbg2
(g3
g4
Ntp1161
Rp1162
(dp1163
g8
F0.12106014043092728
sg9
g2
(g10
g11
F0.041277635304906926
tp1164
Rp1165
sg14
Nsg15
(dp1166
g1162
F1.0
ssbg2
(g3
g4
Ntp1167
Rp1168
(dp1169
g8
F0.2574300765991211
sg9
g2
(g10
g11
F0.07831344384114046
tp1170
Rp1171
sg14
Nsg15
(dp1172
g1168
F1.0
ssbg2
(g3
g4
Ntp1173
Rp1174
(dp1175
g8
F6.419831333204229e-11
sg9
g2
(g10
g11
F7.345448670371717e-11
tp1176
Rp1177
sg14
Nsg15
(dp1178
g1174
F1.0
ssbF1.0
F0.6321
F1.7505000000000002
tp1179
sS'eq1b_eq4j_1200_Inf_mht_900_950'
p1180
(g2
(g3
g4
Ntp1181
Rp1182
(dp1183
g8
F0.34283575415611267
sg9
g2
(g10
g11
F0.21866456679560964
tp1184
Rp1185
sg14
Nsg15
(dp1186
g1182
F1.0
ssbg2
(g3
g4
Ntp1187
Rp1188
(dp1189
g8
F0.05017510801553726
sg9
g2
(g10
g11
F0.03452330264815965
tp1190
Rp1191
sg14
Nsg15
(dp1192
g1188
F1.0
ssbg2
(g3
g4
Ntp1193
Rp1194
(dp1195
g8
F0.292660653591156
sg9
g2
(g10
g11
F0.19012716981551292
tp1196
Rp1197
sg14
Nsg15
(dp1198
g1194
F1.0
ssbg2
(g3
g4
Ntp1199
Rp1200
(dp1201
g8
F4.918170037893077e-11
sg9
g2
(g10
g11
F5.483695194245018e-11
tp1202
Rp1203
sg14
Nsg15
(dp1204
g1200
F1.0
ssbF2.0
F1.2642
F2.2504
tp1205
sS'eq2b_ge6j_600_900_mht_400_500'
p1206
(g2
(g3
g4
Ntp1207
Rp1208
(dp1209
g8
F1.0192697048187256
sg9
g2
(g10
g11
F0.2720078856082464
tp1210
Rp1211
sg14
Nsg15
(dp1212
g1208
F1.0
ssbg2
(g3
g4
Ntp1213
Rp1214
(dp1215
g8
F0.7765346765518188
sg9
g2
(g10
g11
F0.16153469207927967
tp1216
Rp1217
sg14
Nsg15
(dp1218
g1214
F1.0
ssbg2
(g3
g4
Ntp1219
Rp1220
(dp1221
g8
F0.24273499846458435
sg9
g2
(g10
g11
F0.1303820373285366
tp1222
Rp1223
sg14
Nsg15
(dp1224
g1220
F1.0
ssbg2
(g3
g4
Ntp1225
Rp1226
(dp1227
g8
F1.0751675105780123e-08
sg9
g2
(g10
g11
F8.668612910274932e-09
tp1228
Rp1229
sg14
Nsg15
(dp1230
g1226
F1.0
ssbF1.0
F0.6321
F1.7505000000000002
tp1231
sS'eq3b_eq5j_900_Inf_mht_400_600'
p1232
(g2
(g3
g4
Ntp1233
Rp1234
(dp1235
g8
F0.055498797446489334
sg9
g2
(g10
g11
F0.0104827747594757
tp1236
Rp1237
sg14
Nsg15
(dp1238
g1234
F1.0
ssbg2
(g3
g4
Ntp1239
Rp1240
(dp1241
g8
F0.03283234313130379
sg9
g2
(g10
g11
F0.008755942034325885
tp1242
Rp1243
sg14
Nsg15
(dp1244
g1240
F1.0
ssbg2
(g3
g4
Ntp1245
Rp1246
(dp1247
g8
F0.022666454315185547
sg9
g2
(g10
g11
F0.003955628804146855
tp1248
Rp1249
sg14
Nsg15
(dp1250
g1246
F1.0
ssbg2
(g3
g4
Ntp1251
Rp1252
(dp1253
g8
F1.2945250774110129e-11
sg9
g2
(g10
g11
F1.254677191731197e-11
tp1254
Rp1255
sg14
Nsg15
(dp1256
g1252
F1.0
ssbF0.0
F0.0
F1.2904
tp1257
sS'eq0b_eq2j_900_1200_mht_200_400'
p1258
(g2
(g3
g4
Ntp1259
Rp1260
(dp1261
g8
F22.619380950927734
sg9
g2
(g10
g11
F6.259490255741177
tp1262
Rp1263
sg14
Nsg15
(dp1264
g1260
F1.0
ssbg2
(g3
g4
Ntp1265
Rp1266
(dp1267
g8
F8.456658363342285
sg9
g2
(g10
g11
F2.1149677106408085
tp1268
Rp1269
sg14
Nsg15
(dp1270
g1266
F1.0
ssbg2
(g3
g4
Ntp1271
Rp1272
(dp1273
g8
F14.162721633911133
sg9
g2
(g10
g11
F3.9101240750112294
tp1274
Rp1275
sg14
Nsg15
(dp1276
g1272
F1.0
ssbg2
(g3
g4
Ntp1277
Rp1278
(dp1279
g8
F2.032331858359271e-09
sg9
g2
(g10
g11
F1.4846374443788466e-09
tp1280
Rp1281
sg14
Nsg15
(dp1282
g1278
F1.0
ssbF23.0
F4.684799999999999
F5.3216
tp1283
sS'eq1b_eq5j_900_1200_mht_600_700'
p1284
(g2
(g3
g4
Ntp1285
Rp1286
(dp1287
g8
F0.8090280294418335
sg9
g2
(g10
g11
F0.27975216762599514
tp1288
Rp1289
sg14
Nsg15
(dp1290
g1286
F1.0
ssbg2
(g3
g4
Ntp1291
Rp1292
(dp1293
g8
F0.26810601353645325
sg9
g2
(g10
g11
F0.07273727943857661
tp1294
Rp1295
sg14
Nsg15
(dp1296
g1292
F1.0
ssbg2
(g3
g4
Ntp1297
Rp1298
(dp1299
g8
F0.5409220457077026
sg9
g2
(g10
g11
F0.16614369108997398
tp1300
Rp1301
sg14
Nsg15
(dp1302
g1298
F1.0
ssbg2
(g3
g4
Ntp1303
Rp1304
(dp1305
g8
F1.9011675567170983e-10
sg9
g2
(g10
g11
F1.453829512202103e-10
tp1306
Rp1307
sg14
Nsg15
(dp1308
g1304
F1.0
ssbF0.0
F0.0
F1.2904
tp1309
sS'eq3b_eq5j_900_Inf_mht_700_750'
p1310
(g2
(g3
g4
Ntp1311
Rp1312
(dp1313
g8
F1.9994712374682422e-07
sg9
g2
(g10
g11
F1.997319787071954e-07
tp1314
Rp1315
sg14
Nsg15
(dp1316
g1312
F1.0
ssbg2
(g3
g4
Ntp1317
Rp1318
(dp1319
g8
F1.0000086092532001e-07
sg9
g2
(g10
g11
F9.985770001785293e-08
tp1320
Rp1321
sg14
Nsg15
(dp1322
g1318
F1.0
ssbg2
(g3
g4
Ntp1323
Rp1324
(dp1325
g8
F9.994626992693156e-08
sg9
g2
(g10
g11
F9.987426171784079e-08
tp1326
Rp1327
sg14
Nsg15
(dp1328
g1324
F1.0
ssbg2
(g3
g4
Ntp1329
Rp1330
(dp1331
g8
F2.3392451001679134e-17
sg9
g2
(g10
g11
F2.267238492244484e-17
tp1332
Rp1333
sg14
Nsg15
(dp1334
g1330
F1.0
ssbF0.0
F0.0
F1.2904
tp1335
sS'eq1b_eq4j_600_900_mht_400_600'
p1336
(g2
(g3
g4
Ntp1337
Rp1338
(dp1339
g8
F12.364490509033203
sg9
g2
(g10
g11
F1.667308398996203
tp1340
Rp1341
sg14
Nsg15
(dp1342
g1338
F1.0
ssbg2
(g3
g4
Ntp1343
Rp1344
(dp1345
g8
F5.346539497375488
sg9
g2
(g10
g11
F0.7998040197646785
tp1346
Rp1347
sg14
Nsg15
(dp1348
g1344
F1.0
ssbg2
(g3
g4
Ntp1349
Rp1350
(dp1351
g8
F7.017950534820557
sg9
g2
(g10
g11
F1.00697179934005
tp1352
Rp1353
sg14
Nsg15
(dp1354
g1350
F1.0
ssbg2
(g3
g4
Ntp1355
Rp1356
(dp1357
g8
F1.4344216481276817e-08
sg9
g2
(g10
g11
F1.0830910931031902e-08
tp1358
Rp1359
sg14
Nsg15
(dp1360
g1356
F1.0
ssbF11.0
F3.1936
F3.8194
tp1361
sS'eq2b_ge2a_400_600_mht_500_550'
p1362
(g2
(g3
g4
Ntp1363
Rp1364
(dp1365
g8
F4.0000202261580853e-07
sg9
g2
(g10
g11
F3.4787753103224803e-07
tp1366
Rp1367
sg14
Nsg15
(dp1368
g1364
F1.0
ssbg2
(g3
g4
Ntp1369
Rp1370
(dp1371
g8
F1.9999984601781762e-07
sg9
g2
(g10
g11
F1.1160710006682843e-07
tp1372
Rp1373
sg14
Nsg15
(dp1374
g1370
F1.0
ssbg2
(g3
g4
Ntp1375
Rp1376
(dp1377
g8
F2.0000219080884563e-07
sg9
g2
(g10
g11
F1.3697846670162737e-07
tp1378
Rp1379
sg14
Nsg15
(dp1380
g1376
F1.0
ssbg2
(g3
g4
Ntp1381
Rp1382
(dp1383
g8
F1.0774377541338418e-16
sg9
g2
(g10
g11
F7.151194197823264e-17
tp1384
Rp1385
sg14
Nsg15
(dp1386
g1382
F1.0
ssbF0.0
F0.0
F1.2904
tp1387
sS'eq1b_eq3j_1200_Inf_mht_900_950'
p1388
(g2
(g3
g4
Ntp1389
Rp1390
(dp1391
g8
F0.3912206292152405
sg9
g2
(g10
g11
F0.27779780654755326
tp1392
Rp1393
sg14
Nsg15
(dp1394
g1390
F1.0
ssbg2
(g3
g4
Ntp1395
Rp1396
(dp1397
g8
F0.058685824275016785
sg9
g2
(g10
g11
F0.04723603764875089
tp1398
Rp1399
sg14
Nsg15
(dp1400
g1396
F1.0
ssbg2
(g3
g4
Ntp1401
Rp1402
(dp1403
g8
F0.3325348198413849
sg9
g2
(g10
g11
F0.2339233828419514
tp1404
Rp1405
sg14
Nsg15
(dp1406
g1402
F1.0
ssbg2
(g3
g4
Ntp1407
Rp1408
(dp1409
g8
F1.0572256958774062e-10
sg9
g2
(g10
g11
F9.497521717022977e-11
tp1410
Rp1411
sg14
Nsg15
(dp1412
g1408
F1.0
ssbF2.0
F1.2642
F2.2504
tp1413
sS'eq1b_eq3j_600_900_mht_200_400'
p1414
(g2
(g3
g4
Ntp1415
Rp1416
(dp1417
g8
F11.522273063659668
sg9
g2
(g10
g11
F2.0736393523402805
tp1418
Rp1419
sg14
Nsg15
(dp1420
g1416
F1.0
ssbg2
(g3
g4
Ntp1421
Rp1422
(dp1423
g8
F4.682334899902344
sg9
g2
(g10
g11
F0.8959727730275702
tp1424
Rp1425
sg14
Nsg15
(dp1426
g1422
F1.0
ssbg2
(g3
g4
Ntp1427
Rp1428
(dp1429
g8
F6.839938640594482
sg9
g2
(g10
g11
F1.1627317505222283
tp1430
Rp1431
sg14
Nsg15
(dp1432
g1428
F1.0
ssbg2
(g3
g4
Ntp1433
Rp1434
(dp1435
g8
F9.285316515672548e-09
sg9
g2
(g10
g11
F7.442449060565555e-09
tp1436
Rp1437
sg14
Nsg15
(dp1438
g1434
F1.0
ssbF7.0
F2.7496
F3.3005999999999993
tp1439
sS'eq0b_eq3j_900_1200_mht_900_950'
p1440
(g2
(g3
g4
Ntp1441
Rp1442
(dp1443
g8
F3.551966667175293
sg9
g2
(g10
g11
F1.8800965077404854
tp1444
Rp1445
sg14
Nsg15
(dp1446
g1442
F1.0
ssbg2
(g3
g4
Ntp1447
Rp1448
(dp1449
g8
F0.6978855729103088
sg9
g2
(g10
g11
F0.3600850827287093
tp1450
Rp1451
sg14
Nsg15
(dp1452
g1448
F1.0
ssbg2
(g3
g4
Ntp1453
Rp1454
(dp1455
g8
F2.854081153869629
sg9
g2
(g10
g11
F1.1050809728721258
tp1456
Rp1457
sg14
Nsg15
(dp1458
g1454
F1.0
ssbg2
(g3
g4
Ntp1459
Rp1460
(dp1461
g8
F7.444815874890764e-10
sg9
g2
(g10
g11
F4.4638468328092533e-10
tp1462
Rp1463
sg14
Nsg15
(dp1464
g1460
F1.0
ssbF1.0
F0.6321
F1.7505000000000002
tp1465
sS'eq0b_eq2j_600_900_mht_200_400'
p1466
(g2
(g3
g4
Ntp1467
Rp1468
(dp1469
g8
F34.16160202026367
sg9
g2
(g10
g11
F10.408617880000927
tp1470
Rp1471
sg14
Nsg15
(dp1472
g1468
F1.0
ssbg2
(g3
g4
Ntp1473
Rp1474
(dp1475
g8
F12.930991172790527
sg9
g2
(g10
g11
F3.624507076029712
tp1476
Rp1477
sg14
Nsg15
(dp1478
g1474
F1.0
ssbg2
(g3
g4
Ntp1479
Rp1480
(dp1481
g8
F20.9975643157959
sg9
g2
(g10
g11
F6.8824156450394645
tp1482
Rp1483
sg14
Nsg15
(dp1484
g1480
F1.0
ssbg2
(g3
g4
Ntp1485
Rp1486
(dp1487
g8
F0.23304517567157745
sg9
g2
(g10
g11
F0.23384066739587345
tp1488
Rp1489
sg14
Nsg15
(dp1490
g1486
F1.0
ssbF32.0
F5.656854249492381
F5.656854249492381
tp1491
sS'eq0b_eq4j_400_600_mht_200_400'
p1492
(g2
(g3
g4
Ntp1493
Rp1494
(dp1495
g8
F626.5174560546875
sg9
g2
(g10
g11
F77.5618301743841
tp1496
Rp1497
sg14
Nsg15
(dp1498
g1494
F1.0
ssbg2
(g3
g4
Ntp1499
Rp1500
(dp1501
g8
F282.0072021484375
sg9
g2
(g10
g11
F39.04510337617573
tp1502
Rp1503
sg14
Nsg15
(dp1504
g1500
F1.0
ssbg2
(g3
g4
Ntp1505
Rp1506
(dp1507
g8
F308.05242919921875
sg9
g2
(g10
g11
F26.323831808719454
tp1508
Rp1509
sg14
Nsg15
(dp1510
g1506
F1.0
ssbg2
(g3
g4
Ntp1511
Rp1512
(dp1513
g8
F36.45782470703125
sg9
g2
(g10
g11
F27.637453181495847
tp1514
Rp1515
sg14
Nsg15
(dp1516
g1512
F1.0
ssbF534.0
F23.108440016582687
F23.108440016582687
tp1517
sS'eq0b_ge2a_200_400_mht_200_Inf'
p1518
(g2
(g3
g4
Ntp1519
Rp1520
(dp1521
g8
F12636.275390625
sg9
g2
(g10
g11
F1673.8804736300617
tp1522
Rp1523
sg14
Nsg15
(dp1524
g1520
F1.0
ssbg2
(g3
g4
Ntp1525
Rp1526
(dp1527
g8
F5792.99560546875
sg9
g2
(g10
g11
F603.0899163371081
tp1528
Rp1529
sg14
Nsg15
(dp1530
g1526
F1.0
ssbg2
(g3
g4
Ntp1531
Rp1532
(dp1533
g8
F6754.681640625
sg9
g2
(g10
g11
F602.9997443770187
tp1534
Rp1535
sg14
Nsg15
(dp1536
g1532
F1.0
ssbg2
(g3
g4
Ntp1537
Rp1538
(dp1539
g8
F88.59880065917969
sg9
g2
(g10
g11
F56.97524176191028
tp1540
Rp1541
sg14
Nsg15
(dp1542
g1538
F1.0
ssbF14635.0
F120.97520407091694
F120.97520407091694
tp1543
sS'eq2b_eq3j_400_600_mht_400_500'
p1544
(g2
(g3
g4
Ntp1545
Rp1546
(dp1547
g8
F3.4703686237335205
sg9
g2
(g10
g11
F0.6434219857967558
tp1548
Rp1549
sg14
Nsg15
(dp1550
g1546
F1.0
ssbg2
(g3
g4
Ntp1551
Rp1552
(dp1553
g8
F1.7002601623535156
sg9
g2
(g10
g11
F0.28624041412161505
tp1554
Rp1555
sg14
Nsg15
(dp1556
g1552
F1.0
ssbg2
(g3
g4
Ntp1557
Rp1558
(dp1559
g8
F1.7490413188934326
sg9
g2
(g10
g11
F0.2667426974468755
tp1560
Rp1561
sg14
Nsg15
(dp1562
g1558
F1.0
ssbg2
(g3
g4
Ntp1563
Rp1564
(dp1565
g8
F0.02106708660721779
sg9
g2
(g10
g11
F0.01587628071886597
tp1566
Rp1567
sg14
Nsg15
(dp1568
g1564
F1.0
ssbF8.0
F2.6988000000000003
F3.3186999999999998
tp1569
sS'eq0b_eq4j_1200_Inf_mht_600_900'
p1570
(g2
(g3
g4
Ntp1571
Rp1572
(dp1573
g8
F3.384282112121582
sg9
g2
(g10
g11
F1.2253115510827428
tp1574
Rp1575
sg14
Nsg15
(dp1576
g1572
F1.0
ssbg2
(g3
g4
Ntp1577
Rp1578
(dp1579
g8
F0.6766560673713684
sg9
g2
(g10
g11
F0.3172974344298295
tp1580
Rp1581
sg14
Nsg15
(dp1582
g1578
F1.0
ssbg2
(g3
g4
Ntp1583
Rp1584
(dp1585
g8
F2.7076261043548584
sg9
g2
(g10
g11
F0.9433523793089471
tp1586
Rp1587
sg14
Nsg15
(dp1588
g1584
F1.0
ssbg2
(g3
g4
Ntp1589
Rp1590
(dp1591
g8
F4.85094631130778e-10
sg9
g2
(g10
g11
F5.40887655518035e-10
tp1592
Rp1593
sg14
Nsg15
(dp1594
g1590
F1.0
ssbF3.0
F1.8964
F2.3011999999999997
tp1595
sS'eq1b_ge6j_1200_Inf_mht_400_600'
p1596
(g2
(g3
g4
Ntp1597
Rp1598
(dp1599
g8
F0.7310824394226074
sg9
g2
(g10
g11
F0.16191651419519354
tp1600
Rp1601
sg14
Nsg15
(dp1602
g1598
F1.0
ssbg2
(g3
g4
Ntp1603
Rp1604
(dp1605
g8
F0.34095385670661926
sg9
g2
(g10
g11
F0.08762273695196043
tp1606
Rp1607
sg14
Nsg15
(dp1608
g1604
F1.0
ssbg2
(g3
g4
Ntp1609
Rp1610
(dp1611
g8
F0.37894153594970703
sg9
g2
(g10
g11
F0.09608822938521397
tp1612
Rp1613
sg14
Nsg15
(dp1614
g1610
F1.0
ssbg2
(g3
g4
Ntp1615
Rp1616
(dp1617
g8
F0.01118704117834568
sg9
g2
(g10
g11
F0.01054824361045184
tp1618
Rp1619
sg14
Nsg15
(dp1620
g1616
F1.0
ssbF0.0
F0.0
F1.2904
tp1621
sS'eq0b_eq2j_600_900_mht_600_700'
p1622
(g2
(g3
g4
Ntp1623
Rp1624
(dp1625
g8
F35.08610534667969
sg9
g2
(g10
g11
F16.0273612486195
tp1626
Rp1627
sg14
Nsg15
(dp1628
g1624
F1.0
ssbg2
(g3
g4
Ntp1629
Rp1630
(dp1631
g8
F7.175502300262451
sg9
g2
(g10
g11
F3.0701046814607076
tp1632
Rp1633
sg14
Nsg15
(dp1634
g1630
F1.0
ssbg2
(g3
g4
Ntp1635
Rp1636
(dp1637
g8
F27.67125701904297
sg9
g2
(g10
g11
F9.697439898043807
tp1638
Rp1639
sg14
Nsg15
(dp1640
g1636
F1.0
ssbg2
(g3
g4
Ntp1641
Rp1642
(dp1643
g8
F0.23934847116470337
sg9
g2
(g10
g11
F0.21773063752272495
tp1644
Rp1645
sg14
Nsg15
(dp1646
g1642
F1.0
ssbF35.0
F5.916079783099616
F5.916079783099616
tp1647
sS'eq0b_ge2a_600_900_mht_200_400'
p1648
(g2
(g3
g4
Ntp1649
Rp1650
(dp1651
g8
F8.184953689575195
sg9
g2
(g10
g11
F1.9443877225807245
tp1652
Rp1653
sg14
Nsg15
(dp1654
g1650
F1.0
ssbg2
(g3
g4
Ntp1655
Rp1656
(dp1657
g8
F2.6889452934265137
sg9
g2
(g10
g11
F0.6235995051100004
tp1658
Rp1659
sg14
Nsg15
(dp1660
g1656
F1.0
ssbg2
(g3
g4
Ntp1661
Rp1662
(dp1663
g8
F5.49600887298584
sg9
g2
(g10
g11
F1.4372108633087883
tp1664
Rp1665
sg14
Nsg15
(dp1666
g1662
F1.0
ssbg2
(g3
g4
Ntp1667
Rp1668
(dp1669
g8
F1.3415659694260285e-09
sg9
g2
(g10
g11
F1.0577782950455007e-09
tp1670
Rp1671
sg14
Nsg15
(dp1672
g1668
F1.0
ssbF9.0
F2.6658
F3.7904999999999998
tp1673
sS'eq0b_eq2j_900_1200_mht_900_950'
p1674
(g2
(g3
g4
Ntp1675
Rp1676
(dp1677
g8
F3.6994056701660156
sg9
g2
(g10
g11
F2.598433741729092
tp1678
Rp1679
sg14
Nsg15
(dp1680
g1676
F1.0
ssbg2
(g3
g4
Ntp1681
Rp1682
(dp1683
g8
F0.5808258652687073
sg9
g2
(g10
g11
F0.37022630034329185
tp1684
Rp1685
sg14
Nsg15
(dp1686
g1682
F1.0
ssbg2
(g3
g4
Ntp1687
Rp1688
(dp1689
g8
F3.118579864501953
sg9
g2
(g10
g11
F1.6482207444133363
tp1690
Rp1691
sg14
Nsg15
(dp1692
g1688
F1.0
ssbg2
(g3
g4
Ntp1693
Rp1694
(dp1695
g8
F3.3241834285213656e-10
sg9
g2
(g10
g11
F2.5247297712386033e-10
tp1696
Rp1697
sg14
Nsg15
(dp1698
g1694
F1.0
ssbF3.0
F1.8964
F2.3011999999999997
tp1699
sS'eq3b_eq4j_900_Inf_mht_600_900'
p1700
(g2
(g3
g4
Ntp1701
Rp1702
(dp1703
g8
F0.017113422974944115
sg9
g2
(g10
g11
F0.005410923447247839
tp1704
Rp1705
sg14
Nsg15
(dp1706
g1702
F1.0
ssbg2
(g3
g4
Ntp1707
Rp1708
(dp1709
g8
F0.004252282902598381
sg9
g2
(g10
g11
F0.0013950158572457348
tp1710
Rp1711
sg14
Nsg15
(dp1712
g1708
F1.0
ssbg2
(g3
g4
Ntp1713
Rp1714
(dp1715
g8
F0.012861140072345734
sg9
g2
(g10
g11
F0.00446295556620087
tp1716
Rp1717
sg14
Nsg15
(dp1718
g1714
F1.0
ssbg2
(g3
g4
Ntp1719
Rp1720
(dp1721
g8
F4.0994195885102336e-12
sg9
g2
(g10
g11
F3.772049675988534e-12
tp1722
Rp1723
sg14
Nsg15
(dp1724
g1720
F1.0
ssbF0.0
F0.0
F1.2904
tp1725
sS'eq1b_eq3j_900_1200_mht_200_400'
p1726
(g2
(g3
g4
Ntp1727
Rp1728
(dp1729
g8
F4.903050422668457
sg9
g2
(g10
g11
F0.863018156671757
tp1730
Rp1731
sg14
Nsg15
(dp1732
g1728
F1.0
ssbg2
(g3
g4
Ntp1733
Rp1734
(dp1735
g8
F2.1903371810913086
sg9
g2
(g10
g11
F0.4699159807325456
tp1736
Rp1737
sg14
Nsg15
(dp1738
g1734
F1.0
ssbg2
(g3
g4
Ntp1739
Rp1740
(dp1741
g8
F2.7127134799957275
sg9
g2
(g10
g11
F0.4119816384158955
tp1742
Rp1743
sg14
Nsg15
(dp1744
g1740
F1.0
ssbg2
(g3
g4
Ntp1745
Rp1746
(dp1747
g8
F1.0294567420743306e-09
sg9
g2
(g10
g11
F6.719454325908623e-10
tp1748
Rp1749
sg14
Nsg15
(dp1750
g1746
F1.0
ssbF5.0
F2.2495
F2.8064
tp1751
sS'eq2b_eq4j_1200_Inf_mht_600_900'
p1752
(g2
(g3
g4
Ntp1753
Rp1754
(dp1755
g8
F0.061487067490816116
sg9
g2
(g10
g11
F0.021268607295541513
tp1756
Rp1757
sg14
Nsg15
(dp1758
g1754
F1.0
ssbg2
(g3
g4
Ntp1759
Rp1760
(dp1761
g8
F0.015439693816006184
sg9
g2
(g10
g11
F0.006044269065858045
tp1762
Rp1763
sg14
Nsg15
(dp1764
g1760
F1.0
ssbg2
(g3
g4
Ntp1765
Rp1766
(dp1767
g8
F0.04604737460613251
sg9
g2
(g10
g11
F0.016272670333111184
tp1768
Rp1769
sg14
Nsg15
(dp1770
g1766
F1.0
ssbg2
(g3
g4
Ntp1771
Rp1772
(dp1773
g8
F8.720403739392868e-12
sg9
g2
(g10
g11
F9.723182276823768e-12
tp1774
Rp1775
sg14
Nsg15
(dp1776
g1772
F1.0
ssbF0.0
F0.0
F1.2904
tp1777
sS'eq0b_eq4j_600_900_mht_700_750'
p1778
(g2
(g3
g4
Ntp1779
Rp1780
(dp1781
g8
F3.9999997625272954e-07
sg9
g2
(g10
g11
F2.0559802781207095e-07
tp1782
Rp1783
sg14
Nsg15
(dp1784
g1780
F1.0
ssbg2
(g3
g4
Ntp1785
Rp1786
(dp1787
g8
F1.999998318069629e-07
sg9
g2
(g10
g11
F9.516552822750981e-08
tp1788
Rp1789
sg14
Nsg15
(dp1790
g1786
F1.0
ssbg2
(g3
g4
Ntp1791
Rp1792
(dp1793
g8
F2.0000015865662135e-07
sg9
g2
(g10
g11
F6.98196937121068e-08
tp1794
Rp1795
sg14
Nsg15
(dp1796
g1792
F1.0
ssbg2
(g3
g4
Ntp1797
Rp1798
(dp1799
g8
F2.881859667047714e-16
sg9
g2
(g10
g11
F2.1549360620864113e-16
tp1800
Rp1801
sg14
Nsg15
(dp1802
g1798
F1.0
ssbF0.0
F0.0
F1.2904
tp1803
sS'eq0b_ge2a_400_600_mht_400_500'
p1804
(g2
(g3
g4
Ntp1805
Rp1806
(dp1807
g8
F323.42901611328125
sg9
g2
(g10
g11
F38.01657533234681
tp1808
Rp1809
sg14
Nsg15
(dp1810
g1806
F1.0
ssbg2
(g3
g4
Ntp1811
Rp1812
(dp1813
g8
F98.07551574707031
sg9
g2
(g10
g11
F14.209080589236104
tp1814
Rp1815
sg14
Nsg15
(dp1816
g1812
F1.0
ssbg2
(g3
g4
Ntp1817
Rp1818
(dp1819
g8
F225.35348510742188
sg9
g2
(g10
g11
F23.505029485895406
tp1820
Rp1821
sg14
Nsg15
(dp1822
g1818
F1.0
ssbg2
(g3
g4
Ntp1823
Rp1824
(dp1825
g8
F1.742489388334434e-07
sg9
g2
(g10
g11
F1.1851906762210754e-07
tp1826
Rp1827
sg14
Nsg15
(dp1828
g1824
F1.0
ssbF354.0
F18.81488772222678
F18.81488772222678
tp1829
sS'eq1b_eq4j_600_900_mht_200_400'
p1830
(g2
(g3
g4
Ntp1831
Rp1832
(dp1833
g8
F24.194223403930664
sg9
g2
(g10
g11
F2.842933648278768
tp1834
Rp1835
sg14
Nsg15
(dp1836
g1832
F1.0
ssbg2
(g3
g4
Ntp1837
Rp1838
(dp1839
g8
F12.908411979675293
sg9
g2
(g10
g11
F1.9351380748919405
tp1840
Rp1841
sg14
Nsg15
(dp1842
g1838
F1.0
ssbg2
(g3
g4
Ntp1843
Rp1844
(dp1845
g8
F11.285812377929688
sg9
g2
(g10
g11
F1.2939839322066877
tp1846
Rp1847
sg14
Nsg15
(dp1848
g1844
F1.0
ssbg2
(g3
g4
Ntp1849
Rp1850
(dp1851
g8
F2.7979588423932e-08
sg9
g2
(g10
g11
F2.2498628696795725e-08
tp1852
Rp1853
sg14
Nsg15
(dp1854
g1850
F1.0
ssbF27.0
F5.191600000000001
F5.816899999999997
tp1855
sS'eq2b_eq5j_1200_Inf_mht_400_600'
p1856
(g2
(g3
g4
Ntp1857
Rp1858
(dp1859
g8
F0.15353453159332275
sg9
g2
(g10
g11
F0.031445004479457535
tp1860
Rp1861
sg14
Nsg15
(dp1862
g1858
F1.0
ssbg2
(g3
g4
Ntp1863
Rp1864
(dp1865
g8
F0.0641382709145546
sg9
g2
(g10
g11
F0.01587745272751007
tp1866
Rp1867
sg14
Nsg15
(dp1868
g1864
F1.0
ssbg2
(g3
g4
Ntp1869
Rp1870
(dp1871
g8
F0.08939626067876816
sg9
g2
(g10
g11
F0.018462321618199183
tp1872
Rp1873
sg14
Nsg15
(dp1874
g1870
F1.0
ssbg2
(g3
g4
Ntp1875
Rp1876
(dp1877
g8
F3.458672584444322e-11
sg9
g2
(g10
g11
F3.0468039633517434e-11
tp1878
Rp1879
sg14
Nsg15
(dp1880
g1876
F1.0
ssbF0.0
F0.0
F1.2904
tp1881
sS'eq2b_ge2a_600_900_mht_400_600'
p1882
(g2
(g3
g4
Ntp1883
Rp1884
(dp1885
g8
F0.27970874309539795
sg9
g2
(g10
g11
F0.044354717965535015
tp1886
Rp1887
sg14
Nsg15
(dp1888
g1884
F1.0
ssbg2
(g3
g4
Ntp1889
Rp1890
(dp1891
g8
F0.18663541972637177
sg9
g2
(g10
g11
F0.03652905099756125
tp1892
Rp1893
sg14
Nsg15
(dp1894
g1890
F1.0
ssbg2
(g3
g4
Ntp1895
Rp1896
(dp1897
g8
F0.09307333081960678
sg9
g2
(g10
g11
F0.012717098470183322
tp1898
Rp1899
sg14
Nsg15
(dp1900
g1896
F1.0
ssbg2
(g3
g4
Ntp1901
Rp1902
(dp1903
g8
F4.5736116283112693e-11
sg9
g2
(g10
g11
F6.328637780745339e-11
tp1904
Rp1905
sg14
Nsg15
(dp1906
g1902
F1.0
ssbF0.0
F0.0
F1.2904
tp1907
sS'eq0b_eq3j_200_400_mht_200_Inf'
p1908
(g2
(g3
g4
Ntp1909
Rp1910
(dp1911
g8
F1290.58544921875
sg9
g2
(g10
g11
F245.270901250026
tp1912
Rp1913
sg14
Nsg15
(dp1914
g1910
F1.0
ssbg2
(g3
g4
Ntp1915
Rp1916
(dp1917
g8
F608.93310546875
sg9
g2
(g10
g11
F86.57731634561311
tp1918
Rp1919
sg14
Nsg15
(dp1920
g1916
F1.0
ssbg2
(g3
g4
Ntp1921
Rp1922
(dp1923
g8
F681.6524047851562
sg9
g2
(g10
g11
F76.60330627554413
tp1924
Rp1925
sg14
Nsg15
(dp1926
g1922
F1.0
ssbg2
(g3
g4
Ntp1927
Rp1928
(dp1929
g8
F1.1729549441952258e-05
sg9
g2
(g10
g11
F7.578550941608289e-06
tp1930
Rp1931
sg14
Nsg15
(dp1932
g1928
F1.0
ssbF1451.0
F38.09199390948182
F38.09199390948182
tp1933
sS'ge4b_ge6j_400_600_mht_200_Inf'
p1934
(g2
(g3
g4
Ntp1935
Rp1936
(dp1937
g8
F0.35169997811317444
sg9
g2
(g10
g11
F0.07894688305998394
tp1938
Rp1939
sg14
Nsg15
(dp1940
g1936
F1.0
ssbg2
(g3
g4
Ntp1941
Rp1942
(dp1943
g8
F0.30809998512268066
sg9
g2
(g10
g11
F0.07591577368237941
tp1944
Rp1945
sg14
Nsg15
(dp1946
g1942
F1.0
ssbg2
(g3
g4
Ntp1947
Rp1948
(dp1949
g8
F0.02459999918937683
sg9
g2
(g10
g11
F0.004355932636532627
tp1950
Rp1951
sg14
Nsg15
(dp1952
g1948
F1.0
ssbg2
(g3
g4
Ntp1953
Rp1954
(dp1955
g8
F0.01899999938905239
sg9
g2
(g10
g11
F0.01325301506943142
tp1956
Rp1957
sg14
Nsg15
(dp1958
g1954
F1.0
ssbF0.0
F0.0
F1.2904
tp1959
sS'eq3b_eq4j_400_600_mht_200_400'
p1960
(g2
(g3
g4
Ntp1961
Rp1962
(dp1963
g8
F5.1620988845825195
sg9
g2
(g10
g11
F0.7923537341380057
tp1964
Rp1965
sg14
Nsg15
(dp1966
g1962
F1.0
ssbg2
(g3
g4
Ntp1967
Rp1968
(dp1969
g8
F4.4254608154296875
sg9
g2
(g10
g11
F0.62331640649786
tp1970
Rp1971
sg14
Nsg15
(dp1972
g1968
F1.0
ssbg2
(g3
g4
Ntp1973
Rp1974
(dp1975
g8
F0.44655686616897583
sg9
g2
(g10
g11
F0.041811832086933426
tp1976
Rp1977
sg14
Nsg15
(dp1978
g1974
F1.0
ssbg2
(g3
g4
Ntp1979
Rp1980
(dp1981
g8
F0.2900810241699219
sg9
g2
(g10
g11
F0.24208892415846484
tp1982
Rp1983
sg14
Nsg15
(dp1984
g1980
F1.0
ssbF5.0
F2.2495
F2.8064
tp1985
sS'eq0b_eq2j_400_600_mht_400_500'
p1986
(g2
(g3
g4
Ntp1987
Rp1988
(dp1989
g8
F267.9616394042969
sg9
g2
(g10
g11
F89.53011364898404
tp1990
Rp1991
sg14
Nsg15
(dp1992
g1988
F1.0
ssbg2
(g3
g4
Ntp1993
Rp1994
(dp1995
g8
F80.67963409423828
sg9
g2
(g10
g11
F22.47588681857181
tp1996
Rp1997
sg14
Nsg15
(dp1998
g1994
F1.0
ssbg2
(g3
g4
Ntp1999
Rp2000
(dp2001
g8
F185.4544219970703
sg9
g2
(g10
g11
F50.11134399390023
tp2002
Rp2003
sg14
Nsg15
(dp2004
g2000
F1.0
ssbg2
(g3
g4
Ntp2005
Rp2006
(dp2007
g8
F1.8275837898254395
sg9
g2
(g10
g11
F1.1652472162514225
tp2008
Rp2009
sg14
Nsg15
(dp2010
g2006
F1.0
ssbF336.0
F18.33030277982336
F18.33030277982336
tp2011
sS'eq1b_ge6j_900_1200_mht_700_750'
p2012
(g2
(g3
g4
Ntp2013
Rp2014
(dp2015
g8
F4.0832512127053633e-07
sg9
g2
(g10
g11
F3.898481811999367e-07
tp2016
Rp2017
sg14
Nsg15
(dp2018
g2014
F1.0
ssbg2
(g3
g4
Ntp2019
Rp2020
(dp2021
g8
F2.0000314293611154e-07
sg9
g2
(g10
g11
F1.382590786888898e-07
tp2022
Rp2023
sg14
Nsg15
(dp2024
g2020
F1.0
ssbg2
(g3
g4
Ntp2025
Rp2026
(dp2027
g8
F2.0000061340397224e-07
sg9
g2
(g10
g11
F1.394360074148192e-07
tp2028
Rp2029
sg14
Nsg15
(dp2030
g2026
F1.0
ssbg2
(g3
g4
Ntp2031
Rp2032
(dp2033
g8
F8.321364930452546e-09
sg9
g2
(g10
g11
F6.542792244802619e-09
tp2034
Rp2035
sg14
Nsg15
(dp2036
g2032
F1.0
ssbF0.0
F0.0
F1.2904
tp2037
sS'eq1b_ge6j_1200_Inf_mht_600_900'
p2038
(g2
(g3
g4
Ntp2039
Rp2040
(dp2041
g8
F0.3207913935184479
sg9
g2
(g10
g11
F0.1793450650214962
tp2042
Rp2043
sg14
Nsg15
(dp2044
g2040
F1.0
ssbg2
(g3
g4
Ntp2045
Rp2046
(dp2047
g8
F0.08890270441770554
sg9
g2
(g10
g11
F0.036216613917188736
tp2048
Rp2049
sg14
Nsg15
(dp2050
g2046
F1.0
ssbg2
(g3
g4
Ntp2051
Rp2052
(dp2053
g8
F0.226980060338974
sg9
g2
(g10
g11
F0.1671181722200657
tp2054
Rp2055
sg14
Nsg15
(dp2056
g2052
F1.0
ssbg2
(g3
g4
Ntp2057
Rp2058
(dp2059
g8
F0.004908639471977949
sg9
g2
(g10
g11
F0.004628172335408385
tp2060
Rp2061
sg14
Nsg15
(dp2062
g2058
F1.0
ssbF1.0
F0.6321
F1.7505000000000002
tp2063
sS'eq0b_eq5j_1200_Inf_mht_600_900'
p2064
(g2
(g3
g4
Ntp2065
Rp2066
(dp2067
g8
F1.6696898937225342
sg9
g2
(g10
g11
F0.6537572985035652
tp2068
Rp2069
sg14
Nsg15
(dp2070
g2066
F1.0
ssbg2
(g3
g4
Ntp2071
Rp2072
(dp2073
g8
F0.40749233961105347
sg9
g2
(g10
g11
F0.19202366490356235
tp2074
Rp2075
sg14
Nsg15
(dp2076
g2072
F1.0
ssbg2
(g3
g4
Ntp2077
Rp2078
(dp2079
g8
F1.262197494506836
sg9
g2
(g10
g11
F0.4850506014825001
tp2080
Rp2081
sg14
Nsg15
(dp2082
g2078
F1.0
ssbg2
(g3
g4
Ntp2083
Rp2084
(dp2085
g8
F3.7636188610079557e-10
sg9
g2
(g10
g11
F3.3154679740243974e-10
tp2086
Rp2087
sg14
Nsg15
(dp2088
g2084
F1.0
ssbF2.0
F1.2642
F2.2504
tp2089
sS'eq1b_eq2j_600_900_mht_400_600'
p2090
(g2
(g3
g4
Ntp2091
Rp2092
(dp2093
g8
F3.004077196121216
sg9
g2
(g10
g11
F0.9019481766186259
tp2094
Rp2095
sg14
Nsg15
(dp2096
g2092
F1.0
ssbg2
(g3
g4
Ntp2097
Rp2098
(dp2099
g8
F0.8880563974380493
sg9
g2
(g10
g11
F0.2643810128820054
tp2100
Rp2101
sg14
Nsg15
(dp2102
g2098
F1.0
ssbg2
(g3
g4
Ntp2103
Rp2104
(dp2105
g8
F2.095629930496216
sg9
g2
(g10
g11
F0.536399871517119
tp2106
Rp2107
sg14
Nsg15
(dp2108
g2104
F1.0
ssbg2
(g3
g4
Ntp2109
Rp2110
(dp2111
g8
F0.02039089985191822
sg9
g2
(g10
g11
F0.020401716312486863
tp2112
Rp2113
sg14
Nsg15
(dp2114
g2110
F1.0
ssbF10.0
F3.2236000000000002
F3.805999999999999
tp2115
sS'eq0b_eq2j_1200_Inf_mht_200_400'
p2116
(g2
(g3
g4
Ntp2117
Rp2118
(dp2119
g8
F1.49745774269104
sg9
g2
(g10
g11
F0.5787414892901505
tp2120
Rp2121
sg14
Nsg15
(dp2122
g2118
F1.0
ssbg2
(g3
g4
Ntp2123
Rp2124
(dp2125
g8
F0.4891066253185272
sg9
g2
(g10
g11
F0.197584031975695
tp2126
Rp2127
sg14
Nsg15
(dp2128
g2124
F1.0
ssbg2
(g3
g4
Ntp2129
Rp2130
(dp2131
g8
F1.0083510875701904
sg9
g2
(g10
g11
F0.5131689776254679
tp2132
Rp2133
sg14
Nsg15
(dp2134
g2130
F1.0
ssbg2
(g3
g4
Ntp2135
Rp2136
(dp2137
g8
F2.5413934845452957e-10
sg9
g2
(g10
g11
F2.9085302130868415e-10
tp2138
Rp2139
sg14
Nsg15
(dp2140
g2136
F1.0
ssbF0.0
F0.0
F1.2904
tp2141
sS'eq1b_eq2j_900_1200_mht_200_400'
p2142
(g2
(g3
g4
Ntp2143
Rp2144
(dp2145
g8
F2.2231998443603516
sg9
g2
(g10
g11
F0.6044457398350865
tp2146
Rp2147
sg14
Nsg15
(dp2148
g2144
F1.0
ssbg2
(g3
g4
Ntp2149
Rp2150
(dp2151
g8
F0.784365177154541
sg9
g2
(g10
g11
F0.19054898794581587
tp2152
Rp2153
sg14
Nsg15
(dp2154
g2150
F1.0
ssbg2
(g3
g4
Ntp2155
Rp2156
(dp2157
g8
F1.4388347864151
sg9
g2
(g10
g11
F0.3672865973324893
tp2158
Rp2159
sg14
Nsg15
(dp2160
g2156
F1.0
ssbg2
(g3
g4
Ntp2161
Rp2162
(dp2163
g8
F1.9984945642814722e-10
sg9
g2
(g10
g11
F1.4430948986672228e-10
tp2164
Rp2165
sg14
Nsg15
(dp2166
g2162
F1.0
ssbF0.0
F0.0
F1.2904
tp2167
sS'eq2b_eq4j_900_1200_mht_400_600'
p2168
(g2
(g3
g4
Ntp2169
Rp2170
(dp2171
g8
F0.5146534442901611
sg9
g2
(g10
g11
F0.0829270021108929
tp2172
Rp2173
sg14
Nsg15
(dp2174
g2170
F1.0
ssbg2
(g3
g4
Ntp2175
Rp2176
(dp2177
g8
F0.22602695226669312
sg9
g2
(g10
g11
F0.04095244855442149
tp2178
Rp2179
sg14
Nsg15
(dp2180
g2176
F1.0
ssbg2
(g3
g4
Ntp2181
Rp2182
(dp2183
g8
F0.2886265218257904
sg9
g2
(g10
g11
F0.044195908132945765
tp2184
Rp2185
sg14
Nsg15
(dp2186
g2182
F1.0
ssbg2
(g3
g4
Ntp2187
Rp2188
(dp2189
g8
F1.235867796989254e-10
sg9
g2
(g10
g11
F9.6651394473889e-11
tp2190
Rp2191
sg14
Nsg15
(dp2192
g2188
F1.0
ssbF0.0
F0.0
F1.2904
tp2193
sS'eq0b_eq2j_400_600_mht_200_400'
p2194
(g2
(g3
g4
Ntp2195
Rp2196
(dp2197
g8
F402.974365234375
sg9
g2
(g10
g11
F108.06103020978469
tp2198
Rp2199
sg14
Nsg15
(dp2200
g2196
F1.0
ssbg2
(g3
g4
Ntp2201
Rp2202
(dp2203
g8
F153.64276123046875
sg9
g2
(g10
g11
F35.84713802645199
tp2204
Rp2205
sg14
Nsg15
(dp2206
g2202
F1.0
ssbg2
(g3
g4
Ntp2207
Rp2208
(dp2209
g8
F246.58277893066406
sg9
g2
(g10
g11
F60.86123785659884
tp2210
Rp2211
sg14
Nsg15
(dp2212
g2208
F1.0
ssbg2
(g3
g4
Ntp2213
Rp2214
(dp2215
g8
F2.7488162517547607
sg9
g2
(g10
g11
F2.038009476883916
tp2216
Rp2217
sg14
Nsg15
(dp2218
g2214
F1.0
ssbF437.0
F20.904544960366874
F20.904544960366874
tp2219
sS'eq0b_eq5j_900_1200_mht_200_400'
p2220
(g2
(g3
g4
Ntp2221
Rp2222
(dp2223
g8
F18.78797721862793
sg9
g2
(g10
g11
F2.688314284343676
tp2224
Rp2225
sg14
Nsg15
(dp2226
g2222
F1.0
ssbg2
(g3
g4
Ntp2227
Rp2228
(dp2229
g8
F8.284049987792969
sg9
g2
(g10
g11
F1.3942934080264513
tp2230
Rp2231
sg14
Nsg15
(dp2232
g2228
F1.0
ssbg2
(g3
g4
Ntp2233
Rp2234
(dp2235
g8
F10.503927230834961
sg9
g2
(g10
g11
F1.5140153592135615
tp2236
Rp2237
sg14
Nsg15
(dp2238
g2234
F1.0
ssbg2
(g3
g4
Ntp2239
Rp2240
(dp2241
g8
F4.395344532781564e-09
sg9
g2
(g10
g11
F3.5996761278842333e-09
tp2242
Rp2243
sg14
Nsg15
(dp2244
g2240
F1.0
ssbF23.0
F4.684799999999999
F5.3216
tp2245
sS'eq0b_eq4j_600_900_mht_200_400'
p2246
(g2
(g3
g4
Ntp2247
Rp2248
(dp2249
g8
F116.87993621826172
sg9
g2
(g10
g11
F14.040368000652618
tp2250
Rp2251
sg14
Nsg15
(dp2252
g2248
F1.0
ssbg2
(g3
g4
Ntp2253
Rp2254
(dp2255
g8
F50.11315155029297
sg9
g2
(g10
g11
F8.06076454114577
tp2256
Rp2257
sg14
Nsg15
(dp2258
g2254
F1.0
ssbg2
(g3
g4
Ntp2259
Rp2260
(dp2261
g8
F66.76678466796875
sg9
g2
(g10
g11
F7.751899456935035
tp2262
Rp2263
sg14
Nsg15
(dp2264
g2260
F1.0
ssbg2
(g3
g4
Ntp2265
Rp2266
(dp2267
g8
F1.3533106368868175e-07
sg9
g2
(g10
g11
F1.0800794039082274e-07
tp2268
Rp2269
sg14
Nsg15
(dp2270
g2266
F1.0
ssbF92.0
F9.591663046625438
F9.591663046625438
tp2271
sS'eq3b_ge2a_600_Inf_mht_700_750'
p2272
(g2
(g3
g4
Ntp2273
Rp2274
(dp2275
g8
F2.0026720903842943e-07
sg9
g2
(g10
g11
F2.0012507742022193e-07
tp2276
Rp2277
sg14
Nsg15
(dp2278
g2274
F1.0
ssbg2
(g3
g4
Ntp2279
Rp2280
(dp2281
g8
F9.999647687664037e-08
sg9
g2
(g10
g11
F9.987270391683733e-08
tp2282
Rp2283
sg14
Nsg15
(dp2284
g2280
F1.0
ssbg2
(g3
g4
Ntp2285
Rp2286
(dp2287
g8
F1.002707250563617e-07
sg9
g2
(g10
g11
F1.0025234929466415e-07
tp2288
Rp2289
sg14
Nsg15
(dp2290
g2286
F1.0
ssbg2
(g3
g4
Ntp2291
Rp2292
(dp2293
g8
F1.6350511900143725e-17
sg9
g2
(g10
g11
F2.188043618850636e-17
tp2294
Rp2295
sg14
Nsg15
(dp2296
g2292
F1.0
ssbF0.0
F0.0
F1.2904
tp2297
sS'eq1b_eq3j_400_600_mht_200_400'
p2298
(g2
(g3
g4
Ntp2299
Rp2300
(dp2301
g8
F139.7611541748047
sg9
g2
(g10
g11
F24.384718415177566
tp2302
Rp2303
sg14
Nsg15
(dp2304
g2300
F1.0
ssbg2
(g3
g4
Ntp2305
Rp2306
(dp2307
g8
F80.77911376953125
sg9
g2
(g10
g11
F13.730230416672615
tp2308
Rp2309
sg14
Nsg15
(dp2310
g2306
F1.0
ssbg2
(g3
g4
Ntp2311
Rp2312
(dp2313
g8
F58.13046646118164
sg9
g2
(g10
g11
F8.240644923776635
tp2314
Rp2315
sg14
Nsg15
(dp2316
g2312
F1.0
ssbg2
(g3
g4
Ntp2317
Rp2318
(dp2319
g8
F0.8515885472297668
sg9
g2
(g10
g11
F0.8018040744755994
tp2320
Rp2321
sg14
Nsg15
(dp2322
g2318
F1.0
ssbF156.0
F12.489995996796797
F12.489995996796797
tp2323
sS'eq1b_eq2j_900_1200_mht_900_950'
p2324
(g2
(g3
g4
Ntp2325
Rp2326
(dp2327
g8
F0.36267387866973877
sg9
g2
(g10
g11
F0.25371176445688937
tp2328
Rp2329
sg14
Nsg15
(dp2330
g2326
F1.0
ssbg2
(g3
g4
Ntp2331
Rp2332
(dp2333
g8
F0.06243269890546799
sg9
g2
(g10
g11
F0.039133571819204765
tp2334
Rp2335
sg14
Nsg15
(dp2336
g2332
F1.0
ssbg2
(g3
g4
Ntp2337
Rp2338
(dp2339
g8
F0.3002411723136902
sg9
g2
(g10
g11
F0.160767528441472
tp2340
Rp2341
sg14
Nsg15
(dp2342
g2338
F1.0
ssbg2
(g3
g4
Ntp2343
Rp2344
(dp2345
g8
F3.256676872620545e-11
sg9
g2
(g10
g11
F2.411337425181456e-11
tp2346
Rp2347
sg14
Nsg15
(dp2348
g2344
F1.0
ssbF0.0
F0.0
F1.2904
tp2349
sS'eq0b_eq2j_1200_Inf_mht_600_900'
p2350
(g2
(g3
g4
Ntp2351
Rp2352
(dp2353
g8
F3.536290168762207
sg9
g2
(g10
g11
F1.7282784530083144
tp2354
Rp2355
sg14
Nsg15
(dp2356
g2352
F1.0
ssbg2
(g3
g4
Ntp2357
Rp2358
(dp2359
g8
F0.7462348341941833
sg9
g2
(g10
g11
F0.4373478216081906
tp2360
Rp2361
sg14
Nsg15
(dp2362
g2358
F1.0
ssbg2
(g3
g4
Ntp2363
Rp2364
(dp2365
g8
F2.790055274963379
sg9
g2
(g10
g11
F1.313756316049131
tp2366
Rp2367
sg14
Nsg15
(dp2368
g2364
F1.0
ssbg2
(g3
g4
Ntp2369
Rp2370
(dp2371
g8
F6.001382724107884e-10
sg9
g2
(g10
g11
F6.863719284750739e-10
tp2372
Rp2373
sg14
Nsg15
(dp2374
g2370
F1.0
ssbF2.0
F1.2642
F2.2504
tp2375
sS'eq2b_ge2a_400_600_mht_200_400'
p2376
(g2
(g3
g4
Ntp2377
Rp2378
(dp2379
g8
F49.34223175048828
sg9
g2
(g10
g11
F6.0452034592130355
tp2380
Rp2381
sg14
Nsg15
(dp2382
g2378
F1.0
ssbg2
(g3
g4
Ntp2383
Rp2384
(dp2385
g8
F44.85670471191406
sg9
g2
(g10
g11
F5.191833833030935
tp2386
Rp2387
sg14
Nsg15
(dp2388
g2384
F1.0
ssbg2
(g3
g4
Ntp2389
Rp2390
(dp2391
g8
F4.485525131225586
sg9
g2
(g10
g11
F0.5417515703441708
tp2392
Rp2393
sg14
Nsg15
(dp2394
g2390
F1.0
ssbg2
(g3
g4
Ntp2395
Rp2396
(dp2397
g8
F2.6506484118726803e-08
sg9
g2
(g10
g11
F1.985866575446033e-08
tp2398
Rp2399
sg14
Nsg15
(dp2400
g2396
F1.0
ssbF53.0
F7.280109889280518
F7.280109889280518
tp2401
sS'eq1b_eq2j_1200_Inf_mht_600_900'
p2402
(g2
(g3
g4
Ntp2403
Rp2404
(dp2405
g8
F0.23129120469093323
sg9
g2
(g10
g11
F0.11124605064668526
tp2406
Rp2407
sg14
Nsg15
(dp2408
g2404
F1.0
ssbg2
(g3
g4
Ntp2409
Rp2410
(dp2411
g8
F0.0540168359875679
sg9
g2
(g10
g11
F0.031042847685567632
tp2412
Rp2413
sg14
Nsg15
(dp2414
g2410
F1.0
ssbg2
(g3
g4
Ntp2415
Rp2416
(dp2417
g8
F0.17727437615394592
sg9
g2
(g10
g11
F0.08195733509577392
tp2418
Rp2419
sg14
Nsg15
(dp2420
g2416
F1.0
ssbg2
(g3
g4
Ntp2421
Rp2422
(dp2423
g8
F3.930672454188766e-11
sg9
g2
(g10
g11
F4.496881967907865e-11
tp2424
Rp2425
sg14
Nsg15
(dp2426
g2422
F1.0
ssbF0.0
F0.0
F1.2904
tp2427
sS'eq2b_eq5j_400_600_mht_500_550'
p2428
(g2
(g3
g4
Ntp2429
Rp2430
(dp2431
g8
F3.999991804448655e-07
sg9
g2
(g10
g11
F3.635729697997107e-07
tp2432
Rp2433
sg14
Nsg15
(dp2434
g2430
F1.0
ssbg2
(g3
g4
Ntp2435
Rp2436
(dp2437
g8
F2.0000007339149306e-07
sg9
g2
(g10
g11
F1.1783613620989667e-07
tp2438
Rp2439
sg14
Nsg15
(dp2440
g2436
F1.0
ssbg2
(g3
g4
Ntp2441
Rp2442
(dp2443
g8
F1.9999912126422714e-07
sg9
g2
(g10
g11
F1.393066737717479e-07
tp2444
Rp2445
sg14
Nsg15
(dp2446
g2442
F1.0
ssbg2
(g3
g4
Ntp2447
Rp2448
(dp2449
g8
F1.050765546892641e-15
sg9
g2
(g10
g11
F6.520332084302133e-16
tp2450
Rp2451
sg14
Nsg15
(dp2452
g2448
F1.0
ssbF0.0
F0.0
F1.2904
tp2453
sS'eq3b_eq4j_900_Inf_mht_900_950'
p2454
(g2
(g3
g4
Ntp2455
Rp2456
(dp2457
g8
F0.003530491841956973
sg9
g2
(g10
g11
F0.0020174382727695603
tp2458
Rp2459
sg14
Nsg15
(dp2460
g2456
F1.0
ssbg2
(g3
g4
Ntp2461
Rp2462
(dp2463
g8
F0.0003954540006816387
sg9
g2
(g10
g11
F0.00025440118180013866
tp2464
Rp2465
sg14
Nsg15
(dp2466
g2462
F1.0
ssbg2
(g3
g4
Ntp2467
Rp2468
(dp2469
g8
F0.0031350378412753344
sg9
g2
(g10
g11
F0.001833528913313399
tp2470
Rp2471
sg14
Nsg15
(dp2472
g2468
F1.0
ssbg2
(g3
g4
Ntp2473
Rp2474
(dp2475
g8
F8.465576330218827e-13
sg9
g2
(g10
g11
F7.789535186588174e-13
tp2476
Rp2477
sg14
Nsg15
(dp2478
g2474
F1.0
ssbF0.0
F0.0
F1.2904
tp2479
sS'eq0b_eq3j_1200_Inf_mht_400_600'
p2480
(g2
(g3
g4
Ntp2481
Rp2482
(dp2483
g8
F6.742995262145996
sg9
g2
(g10
g11
F1.819107450510801
tp2484
Rp2485
sg14
Nsg15
(dp2486
g2482
F1.0
ssbg2
(g3
g4
Ntp2487
Rp2488
(dp2489
g8
F2.0087778568267822
sg9
g2
(g10
g11
F0.6672537062803937
tp2490
Rp2491
sg14
Nsg15
(dp2492
g2488
F1.0
ssbg2
(g3
g4
Ntp2493
Rp2494
(dp2495
g8
F4.734217166900635
sg9
g2
(g10
g11
F1.206465153456123
tp2496
Rp2497
sg14
Nsg15
(dp2498
g2494
F1.0
ssbg2
(g3
g4
Ntp2499
Rp2500
(dp2501
g8
F1.8227916953605927e-09
sg9
g2
(g10
g11
F1.6378045639512732e-09
tp2502
Rp2503
sg14
Nsg15
(dp2504
g2500
F1.0
ssbF2.0
F1.2642
F2.2504
tp2505
sS'eq2b_ge6j_600_900_mht_200_400'
p2506
(g2
(g3
g4
Ntp2507
Rp2508
(dp2509
g8
F9.309364318847656
sg9
g2
(g10
g11
F2.136522357290727
tp2510
Rp2511
sg14
Nsg15
(dp2512
g2508
F1.0
ssbg2
(g3
g4
Ntp2513
Rp2514
(dp2515
g8
F8.337790489196777
sg9
g2
(g10
g11
F1.6682685814841207
tp2516
Rp2517
sg14
Nsg15
(dp2518
g2514
F1.0
ssbg2
(g3
g4
Ntp2519
Rp2520
(dp2521
g8
F0.9715735912322998
sg9
g2
(g10
g11
F0.25628047389748004
tp2522
Rp2523
sg14
Nsg15
(dp2524
g2520
F1.0
ssbg2
(g3
g4
Ntp2525
Rp2526
(dp2527
g8
F9.858979410637403e-08
sg9
g2
(g10
g11
F9.905204002780578e-08
tp2528
Rp2529
sg14
Nsg15
(dp2530
g2526
F1.0
ssbF14.0
F3.6994000000000007
F4.315200000000001
tp2531
sS'eq2b_eq2j_600_Inf_mht_400_600'
p2532
(g2
(g3
g4
Ntp2533
Rp2534
(dp2535
g8
F0.2227574586868286
sg9
g2
(g10
g11
F0.06417542715669783
tp2536
Rp2537
sg14
Nsg15
(dp2538
g2534
F1.0
ssbg2
(g3
g4
Ntp2539
Rp2540
(dp2541
g8
F0.055088721215724945
sg9
g2
(g10
g11
F0.01342089212092415
tp2542
Rp2543
sg14
Nsg15
(dp2544
g2540
F1.0
ssbg2
(g3
g4
Ntp2545
Rp2546
(dp2547
g8
F0.16608108580112457
sg9
g2
(g10
g11
F0.03168712913825901
tp2548
Rp2549
sg14
Nsg15
(dp2550
g2546
F1.0
ssbg2
(g3
g4
Ntp2551
Rp2552
(dp2553
g8
F0.0015876595862209797
sg9
g2
(g10
g11
F0.0012031673477379825
tp2554
Rp2555
sg14
Nsg15
(dp2556
g2552
F1.0
ssbF0.0
F0.0
F1.2904
tp2557
sS'eq0b_eq1j_200_400_mht_200_Inf'
p2558
(g2
(g3
g4
Ntp2559
Rp2560
(dp2561
g8
F31882.611328125
sg9
g2
(g10
g11
F3643.5413103188494
tp2562
Rp2563
sg14
Nsg15
(dp2564
g2560
F1.0
ssbg2
(g3
g4
Ntp2565
Rp2566
(dp2567
g8
F13326.708984375
sg9
g2
(g10
g11
F1608.3867175779742
tp2568
Rp2569
sg14
Nsg15
(dp2570
g2566
F1.0
ssbg2
(g3
g4
Ntp2571
Rp2572
(dp2573
g8
F18555.90234375
sg9
g2
(g10
g11
F1712.6938674935461
tp2574
Rp2575
sg14
Nsg15
(dp2576
g2572
F1.0
ssbg2
(g3
g4
Ntp2577
Rp2578
(dp2579
g8
F0.0
sg9
g2
(g10
g11
F0.0
tp2580
Rp2581
sg14
Nsg15
(dp2582
g2578
F1.0
ssbF36361.0
F190.68560512005095
F190.68560512005095
tp2583
sS'eq0b_eq2j_200_400_mht_200_Inf'
p2584
(g2
(g3
g4
Ntp2585
Rp2586
(dp2587
g8
F3642.3955078125
sg9
g2
(g10
g11
F1040.1384138661547
tp2588
Rp2589
sg14
Nsg15
(dp2590
g2586
F1.0
ssbg2
(g3
g4
Ntp2591
Rp2592
(dp2593
g8
F1612.49609375
sg9
g2
(g10
g11
F263.923155245992
tp2594
Rp2595
sg14
Nsg15
(dp2596
g2592
F1.0
ssbg2
(g3
g4
Ntp2597
Rp2598
(dp2599
g8
F2028.8359375
sg9
g2
(g10
g11
F306.0054881043802
tp2600
Rp2601
sg14
Nsg15
(dp2602
g2598
F1.0
ssbg2
(g3
g4
Ntp2603
Rp2604
(dp2605
g8
F1.063599944114685
sg9
g2
(g10
g11
F0.5666646023553759
tp2606
Rp2607
sg14
Nsg15
(dp2608
g2604
F1.0
ssbF4365.0
F66.06814663663572
F66.06814663663572
tp2609
sS'eq2b_eq3j_900_1200_mht_200_400'
p2610
(g2
(g3
g4
Ntp2611
Rp2612
(dp2613
g8
F0.42054179310798645
sg9
g2
(g10
g11
F0.07606428323879315
tp2614
Rp2615
sg14
Nsg15
(dp2616
g2612
F1.0
ssbg2
(g3
g4
Ntp2617
Rp2618
(dp2619
g8
F0.1953635960817337
sg9
g2
(g10
g11
F0.04179980956230548
tp2620
Rp2621
sg14
Nsg15
(dp2622
g2618
F1.0
ssbg2
(g3
g4
Ntp2623
Rp2624
(dp2625
g8
F0.22517818212509155
sg9
g2
(g10
g11
F0.035625501804833135
tp2626
Rp2627
sg14
Nsg15
(dp2628
g2624
F1.0
ssbg2
(g3
g4
Ntp2629
Rp2630
(dp2631
g8
F8.741947443713372e-11
sg9
g2
(g10
g11
F5.698122869262195e-11
tp2632
Rp2633
sg14
Nsg15
(dp2634
g2630
F1.0
ssbF0.0
F0.0
F1.2904
tp2635
sS'eq1b_eq5j_600_900_mht_400_600'
p2636
(g2
(g3
g4
Ntp2637
Rp2638
(dp2639
g8
F6.83020544052124
sg9
g2
(g10
g11
F1.090676555125483
tp2640
Rp2641
sg14
Nsg15
(dp2642
g2638
F1.0
ssbg2
(g3
g4
Ntp2643
Rp2644
(dp2645
g8
F3.6546835899353027
sg9
g2
(g10
g11
F0.562547584216439
tp2646
Rp2647
sg14
Nsg15
(dp2648
g2644
F1.0
ssbg2
(g3
g4
Ntp2649
Rp2650
(dp2651
g8
F3.1755218505859375
sg9
g2
(g10
g11
F0.5309659894335226
tp2652
Rp2653
sg14
Nsg15
(dp2654
g2650
F1.0
ssbg2
(g3
g4
Ntp2655
Rp2656
(dp2657
g8
F1.1966642787797355e-08
sg9
g2
(g10
g11
F9.503075846829312e-09
tp2658
Rp2659
sg14
Nsg15
(dp2660
g2656
F1.0
ssbF10.0
F3.2236000000000002
F3.805999999999999
tp2661
sS'ge4b_eq5j_400_Inf_mht_200_400'
p2662
(g2
(g3
g4
Ntp2663
Rp2664
(dp2665
g8
F0.2396622747182846
sg9
g2
(g10
g11
F0.04491724902673725
tp2666
Rp2667
sg14
Nsg15
(dp2668
g2664
F1.0
ssbg2
(g3
g4
Ntp2669
Rp2670
(dp2671
g8
F0.22413453459739685
sg9
g2
(g10
g11
F0.04309453240418087
tp2672
Rp2673
sg14
Nsg15
(dp2674
g2670
F1.0
ssbg2
(g3
g4
Ntp2675
Rp2676
(dp2677
g8
F0.015527745708823204
sg9
g2
(g10
g11
F0.0037520552506614697
tp2678
Rp2679
sg14
Nsg15
(dp2680
g2676
F1.0
ssbg2
(g3
g4
Ntp2681
Rp2682
(dp2683
g8
F1.2568658336320482e-09
sg9
g2
(g10
g11
F1.2264260571551765e-09
tp2684
Rp2685
sg14
Nsg15
(dp2686
g2682
F1.0
ssbF0.0
F0.0
F1.2904
tp2687
sS'eq2b_eq3j_900_1200_mht_600_900'
p2688
(g2
(g3
g4
Ntp2689
Rp2690
(dp2691
g8
F0.15190191566944122
sg9
g2
(g10
g11
F0.05615684159550496
tp2692
Rp2693
sg14
Nsg15
(dp2694
g2690
F1.0
ssbg2
(g3
g4
Ntp2695
Rp2696
(dp2697
g8
F0.03295837342739105
sg9
g2
(g10
g11
F0.012168397038669582
tp2698
Rp2699
sg14
Nsg15
(dp2700
g2696
F1.0
ssbg2
(g3
g4
Ntp2701
Rp2702
(dp2703
g8
F0.11894354224205017
sg9
g2
(g10
g11
F0.03439296962565684
tp2704
Rp2705
sg14
Nsg15
(dp2706
g2702
F1.0
ssbg2
(g3
g4
Ntp2707
Rp2708
(dp2709
g8
F3.19438572815578e-11
sg9
g2
(g10
g11
F2.00806471364898e-11
tp2710
Rp2711
sg14
Nsg15
(dp2712
g2708
F1.0
ssbF0.0
F0.0
F1.2904
tp2713
sS'eq2b_ge6j_1200_Inf_mht_900_950'
p2714
(g2
(g3
g4
Ntp2715
Rp2716
(dp2717
g8
F0.024072572588920593
sg9
g2
(g10
g11
F0.022682288433006105
tp2718
Rp2719
sg14
Nsg15
(dp2720
g2716
F1.0
ssbg2
(g3
g4
Ntp2721
Rp2722
(dp2723
g8
F0.008522208780050278
sg9
g2
(g10
g11
F0.005309947220960719
tp2724
Rp2725
sg14
Nsg15
(dp2726
g2722
F1.0
ssbg2
(g3
g4
Ntp2727
Rp2728
(dp2729
g8
F0.015191961079835892
sg9
g2
(g10
g11
F0.020497482968116383
tp2730
Rp2731
sg14
Nsg15
(dp2732
g2728
F1.0
ssbg2
(g3
g4
Ntp2733
Rp2734
(dp2735
g8
F0.0003584040096029639
sg9
g2
(g10
g11
F0.000337954742338529
tp2736
Rp2737
sg14
Nsg15
(dp2738
g2734
F1.0
ssbF0.0
F0.0
F1.2904
tp2739
sS'eq2b_eq4j_900_1200_mht_200_400'
p2740
(g2
(g3
g4
Ntp2741
Rp2742
(dp2743
g8
F1.0909993648529053
sg9
g2
(g10
g11
F0.13692482812106976
tp2744
Rp2745
sg14
Nsg15
(dp2746
g2742
F1.0
ssbg2
(g3
g4
Ntp2747
Rp2748
(dp2749
g8
F0.5986132621765137
sg9
g2
(g10
g11
F0.09973082412657008
tp2750
Rp2751
sg14
Nsg15
(dp2752
g2748
F1.0
ssbg2
(g3
g4
Ntp2753
Rp2754
(dp2755
g8
F0.4923860728740692
sg9
g2
(g10
g11
F0.06606512189189695
tp2756
Rp2757
sg14
Nsg15
(dp2758
g2754
F1.0
ssbg2
(g3
g4
Ntp2759
Rp2760
(dp2761
g8
F2.629821638233665e-10
sg9
g2
(g10
g11
F2.0974618425347406e-10
tp2762
Rp2763
sg14
Nsg15
(dp2764
g2760
F1.0
ssbF0.0
F0.0
F1.2904
tp2765
sS'eq3b_ge6j_600_900_mht_200_400'
p2766
(g2
(g3
g4
Ntp2767
Rp2768
(dp2769
g8
F1.4012627601623535
sg9
g2
(g10
g11
F0.3350079259361836
tp2770
Rp2771
sg14
Nsg15
(dp2772
g2768
F1.0
ssbg2
(g3
g4
Ntp2773
Rp2774
(dp2775
g8
F1.292342185974121
sg9
g2
(g10
g11
F0.26805983683000756
tp2776
Rp2777
sg14
Nsg15
(dp2778
g2774
F1.0
ssbg2
(g3
g4
Ntp2779
Rp2780
(dp2781
g8
F0.1089206263422966
sg9
g2
(g10
g11
F0.028586484449793743
tp2782
Rp2783
sg14
Nsg15
(dp2784
g2780
F1.0
ssbg2
(g3
g4
Ntp2785
Rp2786
(dp2787
g8
F1.4545410209620968e-08
sg9
g2
(g10
g11
F1.4425457975997595e-08
tp2788
Rp2789
sg14
Nsg15
(dp2790
g2786
F1.0
ssbF0.0
F0.0
F1.2904
tp2791
sS'eq1b_ge2a_600_900_mht_400_600'
p2792
(g2
(g3
g4
Ntp2793
Rp2794
(dp2795
g8
F1.3645766973495483
sg9
g2
(g10
g11
F0.21462383320157433
tp2796
Rp2797
sg14
Nsg15
(dp2798
g2794
F1.0
ssbg2
(g3
g4
Ntp2799
Rp2800
(dp2801
g8
F0.6297908425331116
sg9
g2
(g10
g11
F0.12022634121219677
tp2802
Rp2803
sg14
Nsg15
(dp2804
g2800
F1.0
ssbg2
(g3
g4
Ntp2805
Rp2806
(dp2807
g8
F0.7347858548164368
sg9
g2
(g10
g11
F0.11360406065356779
tp2808
Rp2809
sg14
Nsg15
(dp2810
g2806
F1.0
ssbg2
(g3
g4
Ntp2811
Rp2812
(dp2813
g8
F2.2315503611647358e-10
sg9
g2
(g10
g11
F3.0878621606097155e-10
tp2814
Rp2815
sg14
Nsg15
(dp2816
g2812
F1.0
ssbF1.0
F0.6321
F1.7505000000000002
tp2817
sS'eq2b_eq3j_1200_Inf_mht_400_600'
p2818
(g2
(g3
g4
Ntp2819
Rp2820
(dp2821
g8
F0.07627178728580475
sg9
g2
(g10
g11
F0.020236334687412223
tp2822
Rp2823
sg14
Nsg15
(dp2824
g2820
F1.0
ssbg2
(g3
g4
Ntp2825
Rp2826
(dp2827
g8
F0.023000366985797882
sg9
g2
(g10
g11
F0.007212020767341984
tp2828
Rp2829
sg14
Nsg15
(dp2830
g2826
F1.0
ssbg2
(g3
g4
Ntp2831
Rp2832
(dp2833
g8
F0.053271424025297165
sg9
g2
(g10
g11
F0.013682507059352315
tp2834
Rp2835
sg14
Nsg15
(dp2836
g2832
F1.0
ssbg2
(g3
g4
Ntp2837
Rp2838
(dp2839
g8
F2.0998347158296404e-11
sg9
g2
(g10
g11
F1.886562594425377e-11
tp2840
Rp2841
sg14
Nsg15
(dp2842
g2838
F1.0
ssbF0.0
F0.0
F1.2904
tp2843
sS'eq1b_eq4j_1200_Inf_mht_200_400'
p2844
(g2
(g3
g4
Ntp2845
Rp2846
(dp2847
g8
F0.6246296763420105
sg9
g2
(g10
g11
F0.17214281890543098
tp2848
Rp2849
sg14
Nsg15
(dp2850
g2846
F1.0
ssbg2
(g3
g4
Ntp2851
Rp2852
(dp2853
g8
F0.2348349690437317
sg9
g2
(g10
g11
F0.05826471385616786
tp2854
Rp2855
sg14
Nsg15
(dp2856
g2852
F1.0
ssbg2
(g3
g4
Ntp2857
Rp2858
(dp2859
g8
F0.3897947072982788
sg9
g2
(g10
g11
F0.14434688872422152
tp2860
Rp2861
sg14
Nsg15
(dp2862
g2858
F1.0
ssbg2
(g3
g4
Ntp2863
Rp2864
(dp2865
g8
F8.953730812333305e-11
sg9
g2
(g10
g11
F9.982695113359553e-11
tp2866
Rp2867
sg14
Nsg15
(dp2868
g2864
F1.0
ssbF0.0
F0.0
F1.2904
tp2869
sS'ge4b_eq5j_400_Inf_mht_500_550'
p2870
(g2
(g3
g4
Ntp2871
Rp2872
(dp2873
g8
F1.9991666988516954e-07
sg9
g2
(g10
g11
F1.9965840103188375e-07
tp2874
Rp2875
sg14
Nsg15
(dp2876
g2872
F1.0
ssbg2
(g3
g4
Ntp2877
Rp2878
(dp2879
g8
F1.0001741657106322e-07
sg9
g2
(g10
g11
F9.97804246340093e-08
tp2880
Rp2881
sg14
Nsg15
(dp2882
g2878
F1.0
ssbg2
(g3
g4
Ntp2883
Rp2884
(dp2885
g8
F9.989925331410632e-08
sg9
g2
(g10
g11
F9.987798514374468e-08
tp2886
Rp2887
sg14
Nsg15
(dp2888
g2884
F1.0
ssbg2
(g3
g4
Ntp2889
Rp2890
(dp2891
g8
F5.253264457553281e-16
sg9
g2
(g10
g11
F5.126037718931474e-16
tp2892
Rp2893
sg14
Nsg15
(dp2894
g2890
F1.0
ssbF0.0
F0.0
F1.2904
tp2895
sS'eq0b_eq5j_600_900_mht_400_600'
p2896
(g2
(g3
g4
Ntp2897
Rp2898
(dp2899
g8
F24.678302764892578
sg9
g2
(g10
g11
F4.356896276710708
tp2900
Rp2901
sg14
Nsg15
(dp2902
g2898
F1.0
ssbg2
(g3
g4
Ntp2903
Rp2904
(dp2905
g8
F8.325298309326172
sg9
g2
(g10
g11
F1.4174074786635245
tp2906
Rp2907
sg14
Nsg15
(dp2908
g2904
F1.0
ssbg2
(g3
g4
Ntp2909
Rp2910
(dp2911
g8
F16.353004455566406
sg9
g2
(g10
g11
F2.6818147931422853
tp2912
Rp2913
sg14
Nsg15
(dp2914
g2910
F1.0
ssbg2
(g3
g4
Ntp2915
Rp2916
(dp2917
g8
F4.303780798409207e-08
sg9
g2
(g10
g11
F3.445250428732462e-08
tp2918
Rp2919
sg14
Nsg15
(dp2920
g2916
F1.0
ssbF18.0
F4.194000000000001
F4.8169
tp2921
sS'eq2b_eq5j_900_1200_mht_200_400'
p2922
(g2
(g3
g4
Ntp2923
Rp2924
(dp2925
g8
F1.340430736541748
sg9
g2
(g10
g11
F0.20319476763454117
tp2926
Rp2927
sg14
Nsg15
(dp2928
g2924
F1.0
ssbg2
(g3
g4
Ntp2929
Rp2930
(dp2931
g8
F0.96457839012146
sg9
g2
(g10
g11
F0.16031526672846141
tp2932
Rp2933
sg14
Nsg15
(dp2934
g2930
F1.0
ssbg2
(g3
g4
Ntp2935
Rp2936
(dp2937
g8
F0.3758523762226105
sg9
g2
(g10
g11
F0.05774529907365134
tp2938
Rp2939
sg14
Nsg15
(dp2940
g2936
F1.0
ssbg2
(g3
g4
Ntp2941
Rp2942
(dp2943
g8
F3.1325161908846155e-10
sg9
g2
(g10
g11
F2.657585528297407e-10
tp2944
Rp2945
sg14
Nsg15
(dp2946
g2942
F1.0
ssbF0.0
F0.0
F1.2904
tp2947
sS'eq3b_ge2a_400_600_mht_200_400'
p2948
(g2
(g3
g4
Ntp2949
Rp2950
(dp2951
g8
F4.5871148109436035
sg9
g2
(g10
g11
F0.6436687825644096
tp2952
Rp2953
sg14
Nsg15
(dp2954
g2950
F1.0
ssbg2
(g3
g4
Ntp2955
Rp2956
(dp2957
g8
F4.3267974853515625
sg9
g2
(g10
g11
F0.5443161516320042
tp2958
Rp2959
sg14
Nsg15
(dp2960
g2956
F1.0
ssbg2
(g3
g4
Ntp2961
Rp2962
(dp2963
g8
F0.26031729578971863
sg9
g2
(g10
g11
F0.03060651043431922
tp2964
Rp2965
sg14
Nsg15
(dp2966
g2962
F1.0
ssbg2
(g3
g4
Ntp2967
Rp2968
(dp2969
g8
F2.433920398559053e-09
sg9
g2
(g10
g11
F1.7717145224884481e-09
tp2970
Rp2971
sg14
Nsg15
(dp2972
g2968
F1.0
ssbF3.0
F1.8964
F2.3011999999999997
tp2973
sS'eq3b_ge2a_200_400_mht_200_Inf'
p2974
(g2
(g3
g4
Ntp2975
Rp2976
(dp2977
g8
F9.446199417114258
sg9
g2
(g10
g11
F1.3034493680718684
tp2978
Rp2979
sg14
Nsg15
(dp2980
g2976
F1.0
ssbg2
(g3
g4
Ntp2981
Rp2982
(dp2983
g8
F8.395899772644043
sg9
g2
(g10
g11
F0.8055147742471029
tp2984
Rp2985
sg14
Nsg15
(dp2986
g2982
F1.0
ssbg2
(g3
g4
Ntp2987
Rp2988
(dp2989
g8
F0.9850000143051147
sg9
g2
(g10
g11
F0.08721185096331362
tp2990
Rp2991
sg14
Nsg15
(dp2992
g2988
F1.0
ssbg2
(g3
g4
Ntp2993
Rp2994
(dp2995
g8
F0.06530000269412994
sg9
g2
(g10
g11
F0.033440267725314096
tp2996
Rp2997
sg14
Nsg15
(dp2998
g2994
F1.0
ssbF14.0
F3.6994000000000007
F4.315200000000001
tp2999
sS'eq2b_eq4j_900_1200_mht_900_950'
p3000
(g2
(g3
g4
Ntp3001
Rp3002
(dp3003
g8
F0.036473348736763
sg9
g2
(g10
g11
F0.019344277943199456
tp3004
Rp3005
sg14
Nsg15
(dp3006
g3002
F1.0
ssbg2
(g3
g4
Ntp3007
Rp3008
(dp3009
g8
F0.00626539858058095
sg9
g2
(g10
g11
F0.003410494169352523
tp3010
Rp3011
sg14
Nsg15
(dp3012
g3008
F1.0
ssbg2
(g3
g4
Ntp3013
Rp3014
(dp3015
g8
F0.030207950621843338
sg9
g2
(g10
g11
F0.013680508220922392
tp3016
Rp3017
sg14
Nsg15
(dp3018
g3014
F1.0
ssbg2
(g3
g4
Ntp3019
Rp3020
(dp3021
g8
F8.600363476940487e-12
sg9
g2
(g10
g11
F7.0139815983755656e-12
tp3022
Rp3023
sg14
Nsg15
(dp3024
g3020
F1.0
ssbF0.0
F0.0
F1.2904
tp3025
sS'eq2b_ge6j_900_1200_mht_200_400'
p3026
(g2
(g3
g4
Ntp3027
Rp3028
(dp3029
g8
F2.4057044982910156
sg9
g2
(g10
g11
F0.5533428905228542
tp3030
Rp3031
sg14
Nsg15
(dp3032
g3028
F1.0
ssbg2
(g3
g4
Ntp3033
Rp3034
(dp3035
g8
F1.9577553272247314
sg9
g2
(g10
g11
F0.4002692806310606
tp3036
Rp3037
sg14
Nsg15
(dp3038
g3034
F1.0
ssbg2
(g3
g4
Ntp3039
Rp3040
(dp3041
g8
F0.3520713150501251
sg9
g2
(g10
g11
F0.1359374780764507
tp3042
Rp3043
sg14
Nsg15
(dp3044
g3040
F1.0
ssbg2
(g3
g4
Ntp3045
Rp3046
(dp3047
g8
F0.09587791562080383
sg9
g2
(g10
g11
F0.08558979612468136
tp3048
Rp3049
sg14
Nsg15
(dp3050
g3046
F1.0
ssbF0.0
F0.0
F1.2904
tp3051
sS'eq0b_eq3j_600_900_mht_200_400'
p3052
(g2
(g3
g4
Ntp3053
Rp3054
(dp3055
g8
F87.62083435058594
sg9
g2
(g10
g11
F16.086877173258333
tp3056
Rp3057
sg14
Nsg15
(dp3058
g3054
F1.0
ssbg2
(g3
g4
Ntp3059
Rp3060
(dp3061
g8
F34.613529205322266
sg9
g2
(g10
g11
F6.680060673512378
tp3062
Rp3063
sg14
Nsg15
(dp3064
g3060
F1.0
ssbg2
(g3
g4
Ntp3065
Rp3066
(dp3067
g8
F53.00730895996094
sg9
g2
(g10
g11
F9.129066627148152
tp3068
Rp3069
sg14
Nsg15
(dp3070
g3066
F1.0
ssbg2
(g3
g4
Ntp3071
Rp3072
(dp3073
g8
F7.058537931925457e-08
sg9
g2
(g10
g11
F5.6498333185215564e-08
tp3074
Rp3075
sg14
Nsg15
(dp3076
g3072
F1.0
ssbF65.0
F8.06225774829855
F8.06225774829855
tp3077
sS'eq1b_eq3j_400_600_mht_500_550'
p3078
(g2
(g3
g4
Ntp3079
Rp3080
(dp3081
g8
F4.0137638279702514e-07
sg9
g2
(g10
g11
F2.3267664510352232e-07
tp3082
Rp3083
sg14
Nsg15
(dp3084
g3080
F1.0
ssbg2
(g3
g4
Ntp3085
Rp3086
(dp3087
g8
F1.9999995970465534e-07
sg9
g2
(g10
g11
F8.556174050082147e-08
tp3088
Rp3089
sg14
Nsg15
(dp3090
g3086
F1.0
ssbg2
(g3
g4
Ntp3091
Rp3092
(dp3093
g8
F2.000001160240572e-07
sg9
g2
(g10
g11
F9.226653333940457e-08
tp3094
Rp3095
sg14
Nsg15
(dp3096
g3092
F1.0
ssbg2
(g3
g4
Ntp3097
Rp3098
(dp3099
g8
F1.3763030715097102e-09
sg9
g2
(g10
g11
F1.07128426175921e-09
tp3100
Rp3101
sg14
Nsg15
(dp3102
g3098
F1.0
ssbF0.0
F0.0
F1.2904
tp3103
sS'eq0b_ge6j_1200_Inf_mht_600_900'
p3104
(g2
(g3
g4
Ntp3105
Rp3106
(dp3107
g8
F1.0950113534927368
sg9
g2
(g10
g11
F0.6590040854065471
tp3108
Rp3109
sg14
Nsg15
(dp3110
g3106
F1.0
ssbg2
(g3
g4
Ntp3111
Rp3112
(dp3113
g8
F0.21549752354621887
sg9
g2
(g10
g11
F0.10076319214848503
tp3114
Rp3115
sg14
Nsg15
(dp3116
g3112
F1.0
ssbg2
(g3
g4
Ntp3117
Rp3118
(dp3119
g8
F0.8628939390182495
sg9
g2
(g10
g11
F0.6243447492906438
tp3120
Rp3121
sg14
Nsg15
(dp3122
g3118
F1.0
ssbg2
(g3
g4
Ntp3123
Rp3124
(dp3125
g8
F0.016619861125946045
sg9
g2
(g10
g11
F0.015668699429616434
tp3126
Rp3127
sg14
Nsg15
(dp3128
g3124
F1.0
ssbF2.0
F1.2642
F2.2504
tp3129
sS'eq2b_ge6j_400_600_mht_200_Inf'
p3130
(g2
(g3
g4
Ntp3131
Rp3132
(dp3133
g8
F9.681199073791504
sg9
g2
(g10
g11
F2.006899719561244
tp3134
Rp3135
sg14
Nsg15
(dp3136
g3132
F1.0
ssbg2
(g3
g4
Ntp3137
Rp3138
(dp3139
g8
F8.51200008392334
sg9
g2
(g10
g11
F1.602092399951825
tp3140
Rp3141
sg14
Nsg15
(dp3142
g3138
F1.0
ssbg2
(g3
g4
Ntp3143
Rp3144
(dp3145
g8
F0.6413000226020813
sg9
g2
(g10
g11
F0.09275395961879625
tp3146
Rp3147
sg14
Nsg15
(dp3148
g3144
F1.0
ssbg2
(g3
g4
Ntp3149
Rp3150
(dp3151
g8
F0.527899980545044
sg9
g2
(g10
g11
F0.5879031979049679
tp3152
Rp3153
sg14
Nsg15
(dp3154
g3150
F1.0
ssbF9.0
F2.6658
F3.7904999999999998
tp3155
sS'eq2b_eq4j_600_900_mht_400_600'
p3156
(g2
(g3
g4
Ntp3157
Rp3158
(dp3159
g8
F2.546468734741211
sg9
g2
(g10
g11
F0.33385832610889227
tp3160
Rp3161
sg14
Nsg15
(dp3162
g3158
F1.0
ssbg2
(g3
g4
Ntp3163
Rp3164
(dp3165
g8
F1.5255651473999023
sg9
g2
(g10
g11
F0.23324006712944273
tp3166
Rp3167
sg14
Nsg15
(dp3168
g3164
F1.0
ssbg2
(g3
g4
Ntp3169
Rp3170
(dp3171
g8
F1.0209035873413086
sg9
g2
(g10
g11
F0.15107750768848044
tp3172
Rp3173
sg14
Nsg15
(dp3174
g3170
F1.0
ssbg2
(g3
g4
Ntp3175
Rp3176
(dp3177
g8
F2.936869414327248e-09
sg9
g2
(g10
g11
F2.2551380054725793e-09
tp3178
Rp3179
sg14
Nsg15
(dp3180
g3176
F1.0
ssbF2.0
F1.2642
F2.2504
tp3181
sS'eq1b_eq3j_1200_Inf_mht_600_900'
p3182
(g2
(g3
g4
Ntp3183
Rp3184
(dp3185
g8
F0.5825865268707275
sg9
g2
(g10
g11
F0.24129469185787453
tp3186
Rp3187
sg14
Nsg15
(dp3188
g3184
F1.0
ssbg2
(g3
g4
Ntp3189
Rp3190
(dp3191
g8
F0.1394038200378418
sg9
g2
(g10
g11
F0.06676476359241312
tp3192
Rp3193
sg14
Nsg15
(dp3194
g3190
F1.0
ssbg2
(g3
g4
Ntp3195
Rp3196
(dp3197
g8
F0.44318273663520813
sg9
g2
(g10
g11
F0.1780784278352269
tp3198
Rp3199
sg14
Nsg15
(dp3200
g3196
F1.0
ssbg2
(g3
g4
Ntp3201
Rp3202
(dp3203
g8
F1.5736388581100158e-10
sg9
g2
(g10
g11
F1.413744715677299e-10
tp3204
Rp3205
sg14
Nsg15
(dp3206
g3202
F1.0
ssbF0.0
F0.0
F1.2904
tp3207
sS'eq0b_eq4j_600_900_mht_400_600'
p3208
(g2
(g3
g4
Ntp3209
Rp3210
(dp3211
g8
F65.12745666503906
sg9
g2
(g10
g11
F9.091233543570972
tp3212
Rp3213
sg14
Nsg15
(dp3214
g3210
F1.0
ssbg2
(g3
g4
Ntp3215
Rp3216
(dp3217
g8
F19.778156280517578
sg9
g2
(g10
g11
F3.3895657367558254
tp3218
Rp3219
sg14
Nsg15
(dp3220
g3216
F1.0
ssbg2
(g3
g4
Ntp3221
Rp3222
(dp3223
g8
F45.34930419921875
sg9
g2
(g10
g11
F6.0115906216040536
tp3224
Rp3225
sg14
Nsg15
(dp3226
g3222
F1.0
ssbg2
(g3
g4
Ntp3227
Rp3228
(dp3229
g8
F7.538511681559612e-08
sg9
g2
(g10
g11
F5.681512177210677e-08
tp3230
Rp3231
sg14
Nsg15
(dp3232
g3228
F1.0
ssbF70.0
F8.366600265340756
F8.366600265340756
tp3233
sS'eq1b_eq4j_1200_Inf_mht_600_900'
p3234
(g2
(g3
g4
Ntp3235
Rp3236
(dp3237
g8
F0.5672968626022339
sg9
g2
(g10
g11
F0.20226354003397448
tp3238
Rp3239
sg14
Nsg15
(dp3240
g3236
F1.0
ssbg2
(g3
g4
Ntp3241
Rp3242
(dp3243
g8
F0.14324530959129333
sg9
g2
(g10
g11
F0.06101204152152831
tp3244
Rp3245
sg14
Nsg15
(dp3246
g3242
F1.0
ssbg2
(g3
g4
Ntp3247
Rp3248
(dp3249
g8
F0.42405158281326294
sg9
g2
(g10
g11
F0.148606759994998
tp3250
Rp3251
sg14
Nsg15
(dp3252
g3248
F1.0
ssbg2
(g3
g4
Ntp3253
Rp3254
(dp3255
g8
F8.161618603175214e-11
sg9
g2
(g10
g11
F9.100129376841572e-11
tp3256
Rp3257
sg14
Nsg15
(dp3258
g3254
F1.0
ssbF1.0
F0.6321
F1.7505000000000002
tp3259
sS'eq0b_eq4j_900_1200_mht_200_400'
p3260
(g2
(g3
g4
Ntp3261
Rp3262
(dp3263
g8
F31.581525802612305
sg9
g2
(g10
g11
F3.787367049801468
tp3264
Rp3265
sg14
Nsg15
(dp3266
g3262
F1.0
ssbg2
(g3
g4
Ntp3267
Rp3268
(dp3269
g8
F12.999894142150879
sg9
g2
(g10
g11
F2.268233656121478
tp3270
Rp3271
sg14
Nsg15
(dp3272
g3268
F1.0
ssbg2
(g3
g4
Ntp3273
Rp3274
(dp3275
g8
F18.58163070678711
sg9
g2
(g10
g11
F2.417302718372479
tp3276
Rp3277
sg14
Nsg15
(dp3278
g3274
F1.0
ssbg2
(g3
g4
Ntp3279
Rp3280
(dp3281
g8
F7.615476249611675e-09
sg9
g2
(g10
g11
F5.9593302545987206e-09
tp3282
Rp3283
sg14
Nsg15
(dp3284
g3280
F1.0
ssbF20.0
F4.1690000000000005
F5.3003
tp3285
sS'eq0b_eq5j_1200_Inf_mht_400_600'
p3286
(g2
(g3
g4
Ntp3287
Rp3288
(dp3289
g8
F2.9054136276245117
sg9
g2
(g10
g11
F0.6114783661228974
tp3290
Rp3291
sg14
Nsg15
(dp3292
g3288
F1.0
ssbg2
(g3
g4
Ntp3293
Rp3294
(dp3295
g8
F0.936191737651825
sg9
g2
(g10
g11
F0.25733425287303124
tp3296
Rp3297
sg14
Nsg15
(dp3298
g3294
F1.0
ssbg2
(g3
g4
Ntp3299
Rp3300
(dp3301
g8
F1.969221830368042
sg9
g2
(g10
g11
F0.3902234141783684
tp3302
Rp3303
sg14
Nsg15
(dp3304
g3300
F1.0
ssbg2
(g3
g4
Ntp3305
Rp3306
(dp3307
g8
F6.545943231905937e-10
sg9
g2
(g10
g11
F5.766114353298564e-10
tp3308
Rp3309
sg14
Nsg15
(dp3310
g3306
F1.0
ssbF4.0
F1.6641
F2.7763999999999998
tp3311
sS'eq2b_eq3j_1200_Inf_mht_900_950'
p3312
(g2
(g3
g4
Ntp3313
Rp3314
(dp3315
g8
F0.03406071290373802
sg9
g2
(g10
g11
F0.02498110563824868
tp3316
Rp3317
sg14
Nsg15
(dp3318
g3314
F1.0
ssbg2
(g3
g4
Ntp3319
Rp3320
(dp3321
g8
F0.005239797756075859
sg9
g2
(g10
g11
F0.004113714347944655
tp3322
Rp3323
sg14
Nsg15
(dp3324
g3320
F1.0
ssbg2
(g3
g4
Ntp3325
Rp3326
(dp3327
g8
F0.028820915147662163
sg9
g2
(g10
g11
F0.02116851977123737
tp3328
Rp3329
sg14
Nsg15
(dp3330
g3326
F1.0
ssbg2
(g3
g4
Ntp3331
Rp3332
(dp3333
g8
F9.207038777214738e-12
sg9
g2
(g10
g11
F8.271282929031398e-12
tp3334
Rp3335
sg14
Nsg15
(dp3336
g3332
F1.0
ssbF0.0
F0.0
F1.2904
tp3337
sS'ge4b_eq5j_400_Inf_mht_400_500'
p3338
(g2
(g3
g4
Ntp3339
Rp3340
(dp3341
g8
F0.018837524577975273
sg9
g2
(g10
g11
F0.004686065792179558
tp3342
Rp3343
sg14
Nsg15
(dp3344
g3340
F1.0
ssbg2
(g3
g4
Ntp3345
Rp3346
(dp3347
g8
F0.01386537030339241
sg9
g2
(g10
g11
F0.0041817753303297536
tp3348
Rp3349
sg14
Nsg15
(dp3350
g3346
F1.0
ssbg2
(g3
g4
Ntp3351
Rp3352
(dp3353
g8
F0.00497215474024415
sg9
g2
(g10
g11
F0.0017050566838523302
tp3354
Rp3355
sg14
Nsg15
(dp3356
g3352
F1.0
ssbg2
(g3
g4
Ntp3357
Rp3358
(dp3359
g8
F9.613368434635561e-11
sg9
g2
(g10
g11
F9.380545615422424e-11
tp3360
Rp3361
sg14
Nsg15
(dp3362
g3358
F1.0
ssbF0.0
F0.0
F1.2904
tp3363
sS'eq1b_eq4j_900_1200_mht_600_900'
p3364
(g2
(g3
g4
Ntp3365
Rp3366
(dp3367
g8
F1.4866938591003418
sg9
g2
(g10
g11
F0.4855046837813543
tp3368
Rp3369
sg14
Nsg15
(dp3370
g3366
F1.0
ssbg2
(g3
g4
Ntp3371
Rp3372
(dp3373
g8
F0.35255181789398193
sg9
g2
(g10
g11
F0.10255516579746682
tp3374
Rp3375
sg14
Nsg15
(dp3376
g3372
F1.0
ssbg2
(g3
g4
Ntp3377
Rp3378
(dp3379
g8
F1.1341419219970703
sg9
g2
(g10
g11
F0.2965249075342454
tp3380
Rp3381
sg14
Nsg15
(dp3382
g3378
F1.0
ssbg2
(g3
g4
Ntp3383
Rp3384
(dp3385
g8
F3.592670327901004e-10
sg9
g2
(g10
g11
F2.7051743452074563e-10
tp3386
Rp3387
sg14
Nsg15
(dp3388
g3384
F1.0
ssbF2.0
F1.2642
F2.2504
tp3389
sS'eq0b_ge2a_900_Inf_mht_900_950'
p3390
(g2
(g3
g4
Ntp3391
Rp3392
(dp3393
g8
F6.347884178161621
sg9
g2
(g10
g11
F3.3863904649138403
tp3394
Rp3395
sg14
Nsg15
(dp3396
g3392
F1.0
ssbg2
(g3
g4
Ntp3397
Rp3398
(dp3399
g8
F0.9956519603729248
sg9
g2
(g10
g11
F0.6702633570727797
tp3400
Rp3401
sg14
Nsg15
(dp3402
g3398
F1.0
ssbg2
(g3
g4
Ntp3403
Rp3404
(dp3405
g8
F5.352232456207275
sg9
g2
(g10
g11
F2.777205297181919
tp3406
Rp3407
sg14
Nsg15
(dp3408
g3404
F1.0
ssbg2
(g3
g4
Ntp3409
Rp3410
(dp3411
g8
F0.0
sg9
g2
(g10
g11
F0.0
tp3412
Rp3413
sg14
Nsg15
(dp3414
g3410
F1.0
ssbF6.0
F2.1769
F3.2782999999999998
tp3415
sS'eq0b_ge6j_900_1200_mht_200_400'
p3416
(g2
(g3
g4
Ntp3417
Rp3418
(dp3419
g8
F12.242452621459961
sg9
g2
(g10
g11
F3.765165947123048
tp3420
Rp3421
sg14
Nsg15
(dp3422
g3418
F1.0
ssbg2
(g3
g4
Ntp3423
Rp3424
(dp3425
g8
F5.7646260261535645
sg9
g2
(g10
g11
F1.042657186426868
tp3426
Rp3427
sg14
Nsg15
(dp3428
g3424
F1.0
ssbg2
(g3
g4
Ntp3429
Rp3430
(dp3431
g8
F5.989567756652832
sg9
g2
(g10
g11
F2.3872111999637617
tp3432
Rp3433
sg14
Nsg15
(dp3434
g3430
F1.0
ssbg2
(g3
g4
Ntp3435
Rp3436
(dp3437
g8
F0.4882583022117615
sg9
g2
(g10
g11
F0.41456700233741767
tp3438
Rp3439
sg14
Nsg15
(dp3440
g3436
F1.0
ssbF9.0
F2.6658
F3.7904999999999998
tp3441
sS'eq1b_eq1j_400_600_mht_200_Inf'
p3442
(g2
(g3
g4
Ntp3443
Rp3444
(dp3445
g8
F39.0088996887207
sg9
g2
(g10
g11
F3.8073215022485787
tp3446
Rp3447
sg14
Nsg15
(dp3448
g3444
F1.0
ssbg2
(g3
g4
Ntp3449
Rp3450
(dp3451
g8
F10.119500160217285
sg9
g2
(g10
g11
F1.334467818094047
tp3452
Rp3453
sg14
Nsg15
(dp3454
g3450
F1.0
ssbg2
(g3
g4
Ntp3455
Rp3456
(dp3457
g8
F28.889400482177734
sg9
g2
(g10
g11
F2.0113788965054837
tp3458
Rp3459
sg14
Nsg15
(dp3460
g3456
F1.0
ssbg2
(g3
g4
Ntp3461
Rp3462
(dp3463
g8
F0.0
sg9
g2
(g10
g11
F0.0
tp3464
Rp3465
sg14
Nsg15
(dp3466
g3462
F1.0
ssbF44.0
F6.6332495807108
F6.6332495807108
tp3467
sS'eq3b_eq5j_600_900_mht_200_400'
p3468
(g2
(g3
g4
Ntp3469
Rp3470
(dp3471
g8
F0.9771074056625366
sg9
g2
(g10
g11
F0.16327237921898002
tp3472
Rp3473
sg14
Nsg15
(dp3474
g3470
F1.0
ssbg2
(g3
g4
Ntp3475
Rp3476
(dp3477
g8
F0.8710951209068298
sg9
g2
(g10
g11
F0.14141488312348852
tp3478
Rp3479
sg14
Nsg15
(dp3480
g3476
F1.0
ssbg2
(g3
g4
Ntp3481
Rp3482
(dp3483
g8
F0.10601231455802917
sg9
g2
(g10
g11
F0.017143769402763305
tp3484
Rp3485
sg14
Nsg15
(dp3486
g3482
F1.0
ssbg2
(g3
g4
Ntp3487
Rp3488
(dp3489
g8
F1.681234373940299e-09
sg9
g2
(g10
g11
F1.4243146299760365e-09
tp3490
Rp3491
sg14
Nsg15
(dp3492
g3488
F1.0
ssbF3.0
F1.8964
F2.3011999999999997
tp3493
sS'eq1b_eq5j_400_600_mht_200_400'
p3494
(g2
(g3
g4
Ntp3495
Rp3496
(dp3497
g8
F75.65116119384766
sg9
g2
(g10
g11
F10.650700534471898
tp3498
Rp3499
sg14
Nsg15
(dp3500
g3496
F1.0
ssbg2
(g3
g4
Ntp3501
Rp3502
(dp3503
g8
F61.47346496582031
sg9
g2
(g10
g11
F7.348705442435932
tp3504
Rp3505
sg14
Nsg15
(dp3506
g3502
F1.0
ssbg2
(g3
g4
Ntp3507
Rp3508
(dp3509
g8
F14.17769718170166
sg9
g2
(g10
g11
F1.511146330578834
tp3510
Rp3511
sg14
Nsg15
(dp3512
g3508
F1.0
ssbg2
(g3
g4
Ntp3513
Rp3514
(dp3515
g8
F3.974212177126901e-07
sg9
g2
(g10
g11
F2.475247966884879e-07
tp3516
Rp3517
sg14
Nsg15
(dp3518
g3514
F1.0
ssbF75.0
F8.660254037844387
F8.660254037844387
tp3519
sS'eq1b_ge6j_400_600_mht_200_Inf'
p3520
(g2
(g3
g4
Ntp3521
Rp3522
(dp3523
g8
F17.777099609375
sg9
g2
(g10
g11
F3.5156338541555168
tp3524
Rp3525
sg14
Nsg15
(dp3526
g3522
F1.0
ssbg2
(g3
g4
Ntp3527
Rp3528
(dp3529
g8
F14.406000137329102
sg9
g2
(g10
g11
F2.627006483252243
tp3530
Rp3531
sg14
Nsg15
(dp3532
g3528
F1.0
ssbg2
(g3
g4
Ntp3533
Rp3534
(dp3535
g8
F2.4084999561309814
sg9
g2
(g10
g11
F0.3452220263131862
tp3536
Rp3537
sg14
Nsg15
(dp3538
g3534
F1.0
ssbg2
(g3
g4
Ntp3539
Rp3540
(dp3541
g8
F0.9625999927520752
sg9
g2
(g10
g11
F1.0671386126690814
tp3542
Rp3543
sg14
Nsg15
(dp3544
g3540
F1.0
ssbF9.0
F2.6658
F3.7904999999999998
tp3545
sS'eq2b_eq3j_400_600_mht_200_400'
p3546
(g2
(g3
g4
Ntp3547
Rp3548
(dp3549
g8
F27.052030563354492
sg9
g2
(g10
g11
F5.053224285898435
tp3550
Rp3551
sg14
Nsg15
(dp3552
g3548
F1.0
ssbg2
(g3
g4
Ntp3553
Rp3554
(dp3555
g8
F20.086040496826172
sg9
g2
(g10
g11
F3.62924241790957
tp3556
Rp3557
sg14
Nsg15
(dp3558
g3554
F1.0
ssbg2
(g3
g4
Ntp3559
Rp3560
(dp3561
g8
F6.801758289337158
sg9
g2
(g10
g11
F0.9915333142630444
tp3562
Rp3563
sg14
Nsg15
(dp3564
g3560
F1.0
ssbg2
(g3
g4
Ntp3565
Rp3566
(dp3567
g8
F0.16423290967941284
sg9
g2
(g10
g11
F0.1596574125387591
tp3568
Rp3569
sg14
Nsg15
(dp3570
g3566
F1.0
ssbF28.0
F5.1831
F5.8222999999999985
tp3571
sS'eq3b_eq4j_600_900_mht_400_600'
p3572
(g2
(g3
g4
Ntp3573
Rp3574
(dp3575
g8
F0.14645466208457947
sg9
g2
(g10
g11
F0.02250668883241457
tp3576
Rp3577
sg14
Nsg15
(dp3578
g3574
F1.0
ssbg2
(g3
g4
Ntp3579
Rp3580
(dp3581
g8
F0.08429353684186935
sg9
g2
(g10
g11
F0.013926346106663282
tp3582
Rp3583
sg14
Nsg15
(dp3584
g3580
F1.0
ssbg2
(g3
g4
Ntp3585
Rp3586
(dp3587
g8
F0.06216113641858101
sg9
g2
(g10
g11
F0.010239534865466257
tp3588
Rp3589
sg14
Nsg15
(dp3590
g3586
F1.0
ssbg2
(g3
g4
Ntp3591
Rp3592
(dp3593
g8
F1.682514960688053e-10
sg9
g2
(g10
g11
F1.2990068515420137e-10
tp3594
Rp3595
sg14
Nsg15
(dp3596
g3592
F1.0
ssbF0.0
F0.0
F1.2904
tp3597
sS'eq0b_eq5j_400_600_mht_200_400'
p3598
(g2
(g3
g4
Ntp3599
Rp3600
(dp3601
g8
F154.60585021972656
sg9
g2
(g10
g11
F21.170154219738222
tp3602
Rp3603
sg14
Nsg15
(dp3604
g3600
F1.0
ssbg2
(g3
g4
Ntp3605
Rp3606
(dp3607
g8
F82.11767578125
sg9
g2
(g10
g11
F10.670846857501516
tp3608
Rp3609
sg14
Nsg15
(dp3610
g3606
F1.0
ssbg2
(g3
g4
Ntp3611
Rp3612
(dp3613
g8
F72.48817443847656
sg9
g2
(g10
g11
F7.346123785233186
tp3614
Rp3615
sg14
Nsg15
(dp3616
g3612
F1.0
ssbg2
(g3
g4
Ntp3617
Rp3618
(dp3619
g8
F8.122697181534022e-07
sg9
g2
(g10
g11
F5.029396544214238e-07
tp3620
Rp3621
sg14
Nsg15
(dp3622
g3618
F1.0
ssbF131.0
F11.445523142259598
F11.445523142259598
tp3623
sS'eq0b_eq5j_400_600_mht_400_500'
p3624
(g2
(g3
g4
Ntp3625
Rp3626
(dp3627
g8
F9.207347869873047
sg9
g2
(g10
g11
F1.968667377978613
tp3628
Rp3629
sg14
Nsg15
(dp3630
g3626
F1.0
ssbg2
(g3
g4
Ntp3631
Rp3632
(dp3633
g8
F3.0865259170532227
sg9
g2
(g10
g11
F0.626784190772646
tp3634
Rp3635
sg14
Nsg15
(dp3636
g3632
F1.0
ssbg2
(g3
g4
Ntp3637
Rp3638
(dp3639
g8
F6.120821952819824
sg9
g2
(g10
g11
F1.4704934733433073
tp3640
Rp3641
sg14
Nsg15
(dp3642
g3638
F1.0
ssbg2
(g3
g4
Ntp3643
Rp3644
(dp3645
g8
F4.833025002426439e-08
sg9
g2
(g10
g11
F3.4705984801900777e-08
tp3646
Rp3647
sg14
Nsg15
(dp3648
g3644
F1.0
ssbF6.0
F2.1769
F3.2782999999999998
tp3649
sS'eq2b_eq2j_600_Inf_mht_700_750'
p3650
(g2
(g3
g4
Ntp3651
Rp3652
(dp3653
g8
F0.07677662372589111
sg9
g2
(g10
g11
F0.04219677081498864
tp3654
Rp3655
sg14
Nsg15
(dp3656
g3652
F1.0
ssbg2
(g3
g4
Ntp3657
Rp3658
(dp3659
g8
F0.013209478929638863
sg9
g2
(g10
g11
F0.007802237387515977
tp3660
Rp3661
sg14
Nsg15
(dp3662
g3658
F1.0
ssbg2
(g3
g4
Ntp3663
Rp3664
(dp3665
g8
F0.0630531758069992
sg9
g2
(g10
g11
F0.03664317571577316
tp3666
Rp3667
sg14
Nsg15
(dp3668
g3664
F1.0
ssbg2
(g3
g4
Ntp3669
Rp3670
(dp3671
g8
F0.000513972423505038
sg9
g2
(g10
g11
F0.0005760012554366124
tp3672
Rp3673
sg14
Nsg15
(dp3674
g3670
F1.0
ssbF0.0
F0.0
F1.2904
tp3675
sS'eq3b_ge6j_900_1200_mht_600_700'
p3676
(g2
(g3
g4
Ntp3677
Rp3678
(dp3679
g8
F0.011475742794573307
sg9
g2
(g10
g11
F0.005090767683967847
tp3680
Rp3681
sg14
Nsg15
(dp3682
g3678
F1.0
ssbg2
(g3
g4
Ntp3683
Rp3684
(dp3685
g8
F0.0077788312919437885
sg9
g2
(g10
g11
F0.0026530788116069562
tp3686
Rp3687
sg14
Nsg15
(dp3688
g3684
F1.0
ssbg2
(g3
g4
Ntp3689
Rp3690
(dp3691
g8
F0.0032580168917775154
sg9
g2
(g10
g11
F0.004009211765448437
tp3692
Rp3693
sg14
Nsg15
(dp3694
g3690
F1.0
ssbg2
(g3
g4
Ntp3695
Rp3696
(dp3697
g8
F0.0004388948145788163
sg9
g2
(g10
g11
F0.0005005171559805621
tp3698
Rp3699
sg14
Nsg15
(dp3700
g3696
F1.0
ssbF0.0
F0.0
F1.2904
tp3701
sS'eq3b_eq4j_400_600_mht_500_550'
p3702
(g2
(g3
g4
Ntp3703
Rp3704
(dp3705
g8
F4.123989469917433e-07
sg9
g2
(g10
g11
F3.916791549635968e-07
tp3706
Rp3707
sg14
Nsg15
(dp3708
g3704
F1.0
ssbg2
(g3
g4
Ntp3709
Rp3710
(dp3711
g8
F1.9999836808892724e-07
sg9
g2
(g10
g11
F1.3817352153618299e-07
tp3712
Rp3713
sg14
Nsg15
(dp3714
g3710
F1.0
ssbg2
(g3
g4
Ntp3715
Rp3716
(dp3717
g8
F2.00030314090327e-07
sg9
g2
(g10
g11
F1.410842121841967e-07
tp3718
Rp3719
sg14
Nsg15
(dp3720
g3716
F1.0
ssbg2
(g3
g4
Ntp3721
Rp3722
(dp3723
g8
F1.237026570066746e-08
sg9
g2
(g10
g11
F8.550200291052476e-09
tp3724
Rp3725
sg14
Nsg15
(dp3726
g3722
F1.0
ssbF0.0
F0.0
F1.2904
tp3727
sS'eq0b_eq1j_900_Inf_mht_200_Inf'
p3728
(g2
(g3
g4
Ntp3729
Rp3730
(dp3731
g8
F7.216300010681152
sg9
g2
(g10
g11
F3.7000148463595726
tp3732
Rp3733
sg14
Nsg15
(dp3734
g3730
F1.0
ssbg2
(g3
g4
Ntp3735
Rp3736
(dp3737
g8
F0.9327999949455261
sg9
g2
(g10
g11
F0.6215980104608498
tp3738
Rp3739
sg14
Nsg15
(dp3740
g3736
F1.0
ssbg2
(g3
g4
Ntp3741
Rp3742
(dp3743
g8
F6.2835001945495605
sg9
g2
(g10
g11
F3.101246441704932
tp3744
Rp3745
sg14
Nsg15
(dp3746
g3742
F1.0
ssbg2
(g3
g4
Ntp3747
Rp3748
(dp3749
g8
F0.0
sg9
g2
(g10
g11
F0.0
tp3750
Rp3751
sg14
Nsg15
(dp3752
g3748
F1.0
ssbF5.0
F2.2495
F2.8064
tp3753
sS'eq3b_eq4j_900_Inf_mht_400_600'
p3754
(g2
(g3
g4
Ntp3755
Rp3756
(dp3757
g8
F0.045378200709819794
sg9
g2
(g10
g11
F0.00787432703575225
tp3758
Rp3759
sg14
Nsg15
(dp3760
g3756
F1.0
ssbg2
(g3
g4
Ntp3761
Rp3762
(dp3763
g8
F0.02309303916990757
sg9
g2
(g10
g11
F0.005242039669868907
tp3764
Rp3765
sg14
Nsg15
(dp3766
g3762
F1.0
ssbg2
(g3
g4
Ntp3767
Rp3768
(dp3769
g8
F0.022285163402557373
sg9
g2
(g10
g11
F0.0041901664137785465
tp3770
Rp3771
sg14
Nsg15
(dp3772
g3768
F1.0
ssbg2
(g3
g4
Ntp3773
Rp3774
(dp3775
g8
F1.063935137907146e-11
sg9
g2
(g10
g11
F9.789714548520908e-12
tp3776
Rp3777
sg14
Nsg15
(dp3778
g3774
F1.0
ssbF0.0
F0.0
F1.2904
tp3779
sS'eq3b_eq3j_400_600_mht_400_500'
p3780
(g2
(g3
g4
Ntp3781
Rp3782
(dp3783
g8
F0.09774551540613174
sg9
g2
(g10
g11
F0.018672588606090588
tp3784
Rp3785
sg14
Nsg15
(dp3786
g3782
F1.0
ssbg2
(g3
g4
Ntp3787
Rp3788
(dp3789
g8
F0.04661067575216293
sg9
g2
(g10
g11
F0.0088790997132934
tp3790
Rp3791
sg14
Nsg15
(dp3792
g3788
F1.0
ssbg2
(g3
g4
Ntp3793
Rp3794
(dp3795
g8
F0.05054619163274765
sg9
g2
(g10
g11
F0.008279291131579367
tp3796
Rp3797
sg14
Nsg15
(dp3798
g3794
F1.0
ssbg2
(g3
g4
Ntp3799
Rp3800
(dp3801
g8
F0.0005886498838663101
sg9
g2
(g10
g11
F0.0004433330337729204
tp3802
Rp3803
sg14
Nsg15
(dp3804
g3800
F1.0
ssbF0.0
F0.0
F1.2904
tp3805
sS'eq0b_ge2a_400_600_mht_500_550'
p3806
(g2
(g3
g4
Ntp3807
Rp3808
(dp3809
g8
F7.701262916270935e-07
sg9
g2
(g10
g11
F1.0348866129446406e-07
tp3810
Rp3811
sg14
Nsg15
(dp3812
g3808
F1.0
ssbg2
(g3
g4
Ntp3813
Rp3814
(dp3815
g8
F3.2453093012918544e-07
sg9
g2
(g10
g11
F6.95230956896038e-08
tp3816
Rp3817
sg14
Nsg15
(dp3818
g3814
F1.0
ssbg2
(g3
g4
Ntp3819
Rp3820
(dp3821
g8
F4.4559538991961745e-07
sg9
g2
(g10
g11
F3.9876931255426585e-08
tp3822
Rp3823
sg14
Nsg15
(dp3824
g3820
F1.0
ssbg2
(g3
g4
Ntp3825
Rp3826
(dp3827
g8
F3.6873996465895784e-16
sg9
g2
(g10
g11
F2.6793769988241273e-16
tp3828
Rp3829
sg14
Nsg15
(dp3830
g3826
F1.0
ssbF0.0
F0.0
F1.2904
tp3831
sS'eq3b_eq5j_400_600_mht_400_500'
p3832
(g2
(g3
g4
Ntp3833
Rp3834
(dp3835
g8
F0.04365164786577225
sg9
g2
(g10
g11
F0.0079940404161053
tp3836
Rp3837
sg14
Nsg15
(dp3838
g3834
F1.0
ssbg2
(g3
g4
Ntp3839
Rp3840
(dp3841
g8
F0.03546549379825592
sg9
g2
(g10
g11
F0.007089091680114384
tp3842
Rp3843
sg14
Nsg15
(dp3844
g3840
F1.0
ssbg2
(g3
g4
Ntp3845
Rp3846
(dp3847
g8
F0.008186154998838902
sg9
g2
(g10
g11
F0.0022430961445837
tp3848
Rp3849
sg14
Nsg15
(dp3850
g3846
F1.0
ssbg2
(g3
g4
Ntp3851
Rp3852
(dp3853
g8
F2.1741684841369846e-10
sg9
g2
(g10
g11
F1.615880850247262e-10
tp3854
Rp3855
sg14
Nsg15
(dp3856
g3852
F1.0
ssbF0.0
F0.0
F1.2904
tp3857
sS'eq2b_eq5j_1200_Inf_mht_200_400'
p3858
(g2
(g3
g4
Ntp3859
Rp3860
(dp3861
g8
F0.11943718791007996
sg9
g2
(g10
g11
F0.026386028198874225
tp3862
Rp3863
sg14
Nsg15
(dp3864
g3860
F1.0
ssbg2
(g3
g4
Ntp3865
Rp3866
(dp3867
g8
F0.07857342064380646
sg9
g2
(g10
g11
F0.01736774541668283
tp3868
Rp3869
sg14
Nsg15
(dp3870
g3866
F1.0
ssbg2
(g3
g4
Ntp3871
Rp3872
(dp3873
g8
F0.0408637672662735
sg9
g2
(g10
g11
F0.01628753879107747
tp3874
Rp3875
sg14
Nsg15
(dp3876
g3872
F1.0
ssbg2
(g3
g4
Ntp3877
Rp3878
(dp3879
g8
F2.6823380322449353e-11
sg9
g2
(g10
g11
F2.363084091212144e-11
tp3880
Rp3881
sg14
Nsg15
(dp3882
g3878
F1.0
ssbF0.0
F0.0
F1.2904
tp3883
sS'eq1b_eq5j_1200_Inf_mht_200_400'
p3884
(g2
(g3
g4
Ntp3885
Rp3886
(dp3887
g8
F0.5490745306015015
sg9
g2
(g10
g11
F0.13587979374406964
tp3888
Rp3889
sg14
Nsg15
(dp3890
g3886
F1.0
ssbg2
(g3
g4
Ntp3891
Rp3892
(dp3893
g8
F0.295995831489563
sg9
g2
(g10
g11
F0.0657118789882969
tp3894
Rp3895
sg14
Nsg15
(dp3896
g3892
F1.0
ssbg2
(g3
g4
Ntp3897
Rp3898
(dp3899
g8
F0.25307872891426086
sg9
g2
(g10
g11
F0.09906761794001498
tp3900
Rp3901
sg14
Nsg15
(dp3902
g3898
F1.0
ssbg2
(g3
g4
Ntp3903
Rp3904
(dp3905
g8
F1.2421720596567098e-10
sg9
g2
(g10
g11
F1.0943445631530967e-10
tp3906
Rp3907
sg14
Nsg15
(dp3908
g3904
F1.0
ssbF2.0
F1.2642
F2.2504
tp3909
sS'eq0b_ge6j_400_600_mht_200_Inf'
p3910
(g2
(g3
g4
Ntp3911
Rp3912
(dp3913
g8
F25.15220069885254
sg9
g2
(g10
g11
F4.727602933008175
tp3914
Rp3915
sg14
Nsg15
(dp3916
g3912
F1.0
ssbg2
(g3
g4
Ntp3917
Rp3918
(dp3919
g8
F14.032400131225586
sg9
g2
(g10
g11
F2.4165152149317377
tp3920
Rp3921
sg14
Nsg15
(dp3922
g3918
F1.0
ssbg2
(g3
g4
Ntp3923
Rp3924
(dp3925
g8
F9.746800422668457
sg9
g2
(g10
g11
F1.582172097800396
tp3926
Rp3927
sg14
Nsg15
(dp3928
g3924
F1.0
ssbg2
(g3
g4
Ntp3929
Rp3930
(dp3931
g8
F1.3730000257492065
sg9
g2
(g10
g11
F1.5077333482908506
tp3932
Rp3933
sg14
Nsg15
(dp3934
g3930
F1.0
ssbF22.0
F4.695699999999999
F5.315000000000001
tp3935
sS'eq3b_eq5j_600_900_mht_400_600'
p3936
(g2
(g3
g4
Ntp3937
Rp3938
(dp3939
g8
F0.20048755407333374
sg9
g2
(g10
g11
F0.03371823997571433
tp3940
Rp3941
sg14
Nsg15
(dp3942
g3938
F1.0
ssbg2
(g3
g4
Ntp3943
Rp3944
(dp3945
g8
F0.15559157729148865
sg9
g2
(g10
g11
F0.025125723666769805
tp3946
Rp3947
sg14
Nsg15
(dp3948
g3944
F1.0
ssbg2
(g3
g4
Ntp3949
Rp3950
(dp3951
g8
F0.04489597678184509
sg9
g2
(g10
g11
F0.007527832845680523
tp3952
Rp3953
sg14
Nsg15
(dp3954
g3950
F1.0
ssbg2
(g3
g4
Ntp3955
Rp3956
(dp3957
g8
F3.4191449671538976e-10
sg9
g2
(g10
g11
F2.7036019641398076e-10
tp3958
Rp3959
sg14
Nsg15
(dp3960
g3956
F1.0
ssbF0.0
F0.0
F1.2904
tp3961
sS'eq2b_eq4j_600_900_mht_700_750'
p3962
(g2
(g3
g4
Ntp3963
Rp3964
(dp3965
g8
F3.999989246494806e-07
sg9
g2
(g10
g11
F3.9211505227623035e-07
tp3966
Rp3967
sg14
Nsg15
(dp3968
g3964
F1.0
ssbg2
(g3
g4
Ntp3969
Rp3970
(dp3971
g8
F2.0000294398414553e-07
sg9
g2
(g10
g11
F1.3796206457395685e-07
tp3972
Rp3973
sg14
Nsg15
(dp3974
g3970
F1.0
ssbg2
(g3
g4
Ntp3975
Rp3976
(dp3977
g8
F1.9999598066533508e-07
sg9
g2
(g10
g11
F1.3933154941303457e-07
tp3978
Rp3979
sg14
Nsg15
(dp3980
g3976
F1.0
ssbg2
(g3
g4
Ntp3981
Rp3982
(dp3983
g8
F2.3158579580114056e-16
sg9
g2
(g10
g11
F1.7996862815254936e-16
tp3984
Rp3985
sg14
Nsg15
(dp3986
g3982
F1.0
ssbF0.0
F0.0
F1.2904
tp3987
sS'eq0b_eq5j_600_900_mht_600_700'
p3988
(g2
(g3
g4
Ntp3989
Rp3990
(dp3991
g8
F3.238461494445801
sg9
g2
(g10
g11
F1.1647092110852042
tp3992
Rp3993
sg14
Nsg15
(dp3994
g3990
F1.0
ssbg2
(g3
g4
Ntp3995
Rp3996
(dp3997
g8
F0.7533300518989563
sg9
g2
(g10
g11
F0.2487425388961635
tp3998
Rp3999
sg14
Nsg15
(dp4000
g3996
F1.0
ssbg2
(g3
g4
Ntp4001
Rp4002
(dp4003
g8
F2.4851315021514893
sg9
g2
(g10
g11
F0.7620655948610799
tp4004
Rp4005
sg14
Nsg15
(dp4006
g4002
F1.0
ssbg2
(g3
g4
Ntp4007
Rp4008
(dp4009
g8
F5.651740409007289e-09
sg9
g2
(g10
g11
F5.742157583749868e-09
tp4010
Rp4011
sg14
Nsg15
(dp4012
g4008
F1.0
ssbF1.0
F0.6321
F1.7505000000000002
tp4013
sS'eq0b_eq4j_600_900_mht_600_700'
p4014
(g2
(g3
g4
Ntp4015
Rp4016
(dp4017
g8
F12.948005676269531
sg9
g2
(g10
g11
F3.9411868899561844
tp4018
Rp4019
sg14
Nsg15
(dp4020
g4016
F1.0
ssbg2
(g3
g4
Ntp4021
Rp4022
(dp4023
g8
F3.1783928871154785
sg9
g2
(g10
g11
F0.8897724876638222
tp4024
Rp4025
sg14
Nsg15
(dp4026
g4022
F1.0
ssbg2
(g3
g4
Ntp4027
Rp4028
(dp4029
g8
F9.769613265991211
sg9
g2
(g10
g11
F2.379364244192757
tp4030
Rp4031
sg14
Nsg15
(dp4032
g4028
F1.0
ssbg2
(g3
g4
Ntp4033
Rp4034
(dp4035
g8
F1.4983822183012308e-08
sg9
g2
(g10
g11
F1.2462773518137441e-08
tp4036
Rp4037
sg14
Nsg15
(dp4038
g4034
F1.0
ssbF12.0
F3.1708999999999996
F4.292000000000002
tp4039
sS'eq2b_eq4j_1200_Inf_mht_200_400'
p4040
(g2
(g3
g4
Ntp4041
Rp4042
(dp4043
g8
F0.08858378231525421
sg9
g2
(g10
g11
F0.02343992141295261
tp4044
Rp4045
sg14
Nsg15
(dp4046
g4042
F1.0
ssbg2
(g3
g4
Ntp4047
Rp4048
(dp4049
g8
F0.035996511578559875
sg9
g2
(g10
g11
F0.00887586381311582
tp4050
Rp4051
sg14
Nsg15
(dp4052
g4048
F1.0
ssbg2
(g3
g4
Ntp4053
Rp4054
(dp4055
g8
F0.05258726701140404
sg9
g2
(g10
g11
F0.019269065625503876
tp4056
Rp4057
sg14
Nsg15
(dp4058
g4054
F1.0
ssbg2
(g3
g4
Ntp4059
Rp4060
(dp4061
g8
F1.2720141780164784e-11
sg9
g2
(g10
g11
F1.4182225679562157e-11
tp4062
Rp4063
sg14
Nsg15
(dp4064
g4060
F1.0
ssbF0.0
F0.0
F1.2904
tp4065
sS'eq1b_eq2j_400_600_mht_400_500'
p4066
(g2
(g3
g4
Ntp4067
Rp4068
(dp4069
g8
F26.276119232177734
sg9
g2
(g10
g11
F8.325508500798916
tp4070
Rp4071
sg14
Nsg15
(dp4072
g4068
F1.0
ssbg2
(g3
g4
Ntp4073
Rp4074
(dp4075
g8
F9.874896049499512
sg9
g2
(g10
g11
F2.529115929217728
tp4076
Rp4077
sg14
Nsg15
(dp4078
g4074
F1.0
ssbg2
(g3
g4
Ntp4079
Rp4080
(dp4081
g8
F16.221458435058594
sg9
g2
(g10
g11
F4.293494586483154
tp4082
Rp4083
sg14
Nsg15
(dp4084
g4080
F1.0
ssbg2
(g3
g4
Ntp4085
Rp4086
(dp4087
g8
F0.17976397275924683
sg9
g2
(g10
g11
F0.11646356259833966
tp4088
Rp4089
sg14
Nsg15
(dp4090
g4086
F1.0
ssbF23.0
F4.684799999999999
F5.3216
tp4091
sS'eq3b_eq4j_600_900_mht_700_750'
p4092
(g2
(g3
g4
Ntp4093
Rp4094
(dp4095
g8
F3.9978593235900917e-07
sg9
g2
(g10
g11
F3.9930166214004983e-07
tp4096
Rp4097
sg14
Nsg15
(dp4098
g4094
F1.0
ssbg2
(g3
g4
Ntp4099
Rp4100
(dp4101
g8
F1.9987678001598397e-07
sg9
g2
(g10
g11
F1.4111410668228585e-07
tp4102
Rp4103
sg14
Nsg15
(dp4104
g4100
F1.0
ssbg2
(g3
g4
Ntp4105
Rp4106
(dp4107
g8
F1.9990916655387991e-07
sg9
g2
(g10
g11
F1.412348573343547e-07
tp4108
Rp4109
sg14
Nsg15
(dp4110
g4106
F1.0
ssbg2
(g3
g4
Ntp4111
Rp4112
(dp4113
g8
F2.315410618736137e-16
sg9
g2
(g10
g11
F1.7992544868303848e-16
tp4114
Rp4115
sg14
Nsg15
(dp4116
g4112
F1.0
ssbF0.0
F0.0
F1.2904
tp4117
sS'eq3b_eq3j_400_600_mht_200_400'
p4118
(g2
(g3
g4
Ntp4119
Rp4120
(dp4121
g8
F1.0376540422439575
sg9
g2
(g10
g11
F0.20688595837845042
tp4122
Rp4123
sg14
Nsg15
(dp4124
g4120
F1.0
ssbg2
(g3
g4
Ntp4125
Rp4126
(dp4127
g8
F0.8483891487121582
sg9
g2
(g10
g11
F0.16311924074682996
tp4128
Rp4129
sg14
Nsg15
(dp4130
g4126
F1.0
ssbg2
(g3
g4
Ntp4131
Rp4132
(dp4133
g8
F0.18315359950065613
sg9
g2
(g10
g11
F0.02713647963271764
tp4134
Rp4135
sg14
Nsg15
(dp4136
g4132
F1.0
ssbg2
(g3
g4
Ntp4137
Rp4138
(dp4139
g8
F0.0061113485135138035
sg9
g2
(g10
g11
F0.006008218831449367
tp4140
Rp4141
sg14
Nsg15
(dp4142
g4138
F1.0
ssbF1.0
F0.6321
F1.7505000000000002
tp4143
sS'eq2b_eq5j_600_900_mht_600_700'
p4144
(g2
(g3
g4
Ntp4145
Rp4146
(dp4147
g8
F0.17246383428573608
sg9
g2
(g10
g11
F0.05264653554895143
tp4148
Rp4149
sg14
Nsg15
(dp4150
g4146
F1.0
ssbg2
(g3
g4
Ntp4151
Rp4152
(dp4153
g8
F0.05969656631350517
sg9
g2
(g10
g11
F0.016448632486214445
tp4154
Rp4155
sg14
Nsg15
(dp4156
g4152
F1.0
ssbg2
(g3
g4
Ntp4157
Rp4158
(dp4159
g8
F0.11276727169752121
sg9
g2
(g10
g11
F0.0341458575540243
tp4160
Rp4161
sg14
Nsg15
(dp4162
g4158
F1.0
ssbg2
(g3
g4
Ntp4163
Rp4164
(dp4165
g8
F3.0167568443317805e-10
sg9
g2
(g10
g11
F3.0695492754298236e-10
tp4166
Rp4167
sg14
Nsg15
(dp4168
g4164
F1.0
ssbF0.0
F0.0
F1.2904
tp4169
sS'eq1b_eq5j_900_1200_mht_700_750'
p4170
(g2
(g3
g4
Ntp4171
Rp4172
(dp4173
g8
F0.324426531791687
sg9
g2
(g10
g11
F0.12682139443405005
tp4174
Rp4175
sg14
Nsg15
(dp4176
g4172
F1.0
ssbg2
(g3
g4
Ntp4177
Rp4178
(dp4179
g8
F0.10258447378873825
sg9
g2
(g10
g11
F0.044650578818887864
tp4180
Rp4181
sg14
Nsg15
(dp4182
g4178
F1.0
ssbg2
(g3
g4
Ntp4183
Rp4184
(dp4185
g8
F0.22184208035469055
sg9
g2
(g10
g11
F0.0955087454971141
tp4186
Rp4187
sg14
Nsg15
(dp4188
g4184
F1.0
ssbg2
(g3
g4
Ntp4189
Rp4190
(dp4191
g8
F7.610111846245715e-11
sg9
g2
(g10
g11
F7.053542607974108e-11
tp4192
Rp4193
sg14
Nsg15
(dp4194
g4190
F1.0
ssbF0.0
F0.0
F1.2904
tp4195
sS'eq2b_ge2a_600_900_mht_600_700'
p4196
(g2
(g3
g4
Ntp4197
Rp4198
(dp4199
g8
F0.1740250289440155
sg9
g2
(g10
g11
F0.05095428915603584
tp4200
Rp4201
sg14
Nsg15
(dp4202
g4198
F1.0
ssbg2
(g3
g4
Ntp4203
Rp4204
(dp4205
g8
F0.05197710543870926
sg9
g2
(g10
g11
F0.01826652116945713
tp4206
Rp4207
sg14
Nsg15
(dp4208
g4204
F1.0
ssbg2
(g3
g4
Ntp4209
Rp4210
(dp4211
g8
F0.12204791605472565
sg9
g2
(g10
g11
F0.0360044850232588
tp4212
Rp4213
sg14
Nsg15
(dp4214
g4210
F1.0
ssbg2
(g3
g4
Ntp4215
Rp4216
(dp4217
g8
F2.8547967809156027e-11
sg9
g2
(g10
g11
F3.9502655748901894e-11
tp4218
Rp4219
sg14
Nsg15
(dp4220
g4216
F1.0
ssbF0.0
F0.0
F1.2904
tp4221
sS'eq2b_ge6j_600_900_mht_500_550'
p4222
(g2
(g3
g4
Ntp4223
Rp4224
(dp4225
g8
F0.5098662376403809
sg9
g2
(g10
g11
F0.15872753494985464
tp4226
Rp4227
sg14
Nsg15
(dp4228
g4224
F1.0
ssbg2
(g3
g4
Ntp4229
Rp4230
(dp4231
g8
F0.3699747622013092
sg9
g2
(g10
g11
F0.10305263986148726
tp4232
Rp4233
sg14
Nsg15
(dp4234
g4230
F1.0
ssbg2
(g3
g4
Ntp4235
Rp4236
(dp4237
g8
F0.13989144563674927
sg9
g2
(g10
g11
F0.10859603879428457
tp4238
Rp4239
sg14
Nsg15
(dp4240
g4236
F1.0
ssbg2
(g3
g4
Ntp4241
Rp4242
(dp4243
g8
F5.36852517996067e-09
sg9
g2
(g10
g11
F5.086778860322257e-09
tp4244
Rp4245
sg14
Nsg15
(dp4246
g4242
F1.0
ssbF1.0
F0.6321
F1.7505000000000002
tp4247
sS'eq1b_ge6j_1200_Inf_mht_200_400'
p4248
(g2
(g3
g4
Ntp4249
Rp4250
(dp4251
g8
F0.9220870137214661
sg9
g2
(g10
g11
F0.4073102759803507
tp4252
Rp4253
sg14
Nsg15
(dp4254
g4250
F1.0
ssbg2
(g3
g4
Ntp4255
Rp4256
(dp4257
g8
F0.5839678049087524
sg9
g2
(g10
g11
F0.16108815817095737
tp4258
Rp4259
sg14
Nsg15
(dp4260
g4256
F1.0
ssbg2
(g3
g4
Ntp4261
Rp4262
(dp4263
g8
F0.32399171590805054
sg9
g2
(g10
g11
F0.32453024734099745
tp4264
Rp4265
sg14
Nsg15
(dp4266
g4262
F1.0
ssbg2
(g3
g4
Ntp4267
Rp4268
(dp4269
g8
F0.014127506874501705
sg9
g2
(g10
g11
F0.01332119446572584
tp4270
Rp4271
sg14
Nsg15
(dp4272
g4268
F1.0
ssbF1.0
F0.6321
F1.7505000000000002
tp4273
sS'eq2b_eq3j_1200_Inf_mht_200_400'
p4274
(g2
(g3
g4
Ntp4275
Rp4276
(dp4277
g8
F0.03087480366230011
sg9
g2
(g10
g11
F0.008404637975417411
tp4278
Rp4279
sg14
Nsg15
(dp4280
g4276
F1.0
ssbg2
(g3
g4
Ntp4281
Rp4282
(dp4283
g8
F0.010141647420823574
sg9
g2
(g10
g11
F0.002873641302211212
tp4284
Rp4285
sg14
Nsg15
(dp4286
g4282
F1.0
ssbg2
(g3
g4
Ntp4287
Rp4288
(dp4289
g8
F0.02073315531015396
sg9
g2
(g10
g11
F0.006593746674003486
tp4290
Rp4291
sg14
Nsg15
(dp4292
g4288
F1.0
ssbg2
(g3
g4
Ntp4293
Rp4294
(dp4295
g8
F8.282346163068777e-12
sg9
g2
(g10
g11
F7.440810585450575e-12
tp4296
Rp4297
sg14
Nsg15
(dp4298
g4294
F1.0
ssbF0.0
F0.0
F1.2904
tp4299
sS'eq1b_eq4j_600_900_mht_600_700'
p4300
(g2
(g3
g4
Ntp4301
Rp4302
(dp4303
g8
F2.1058847904205322
sg9
g2
(g10
g11
F0.6205030480124762
tp4304
Rp4305
sg14
Nsg15
(dp4306
g4302
F1.0
ssbg2
(g3
g4
Ntp4307
Rp4308
(dp4309
g8
F0.5999476909637451
sg9
g2
(g10
g11
F0.14015636771546933
tp4310
Rp4311
sg14
Nsg15
(dp4312
g4308
F1.0
ssbg2
(g3
g4
Ntp4313
Rp4314
(dp4315
g8
F1.505937099456787
sg9
g2
(g10
g11
F0.37945450278101345
tp4316
Rp4317
sg14
Nsg15
(dp4318
g4314
F1.0
ssbg2
(g3
g4
Ntp4319
Rp4320
(dp4321
g8
F2.450192937430984e-09
sg9
g2
(g10
g11
F2.0462039233537193e-09
tp4322
Rp4323
sg14
Nsg15
(dp4324
g4320
F1.0
ssbF1.0
F0.6321
F1.7505000000000002
tp4325
sS'eq1b_eq3j_600_900_mht_700_750'
p4326
(g2
(g3
g4
Ntp4327
Rp4328
(dp4329
g8
F4.000012552296539e-07
sg9
g2
(g10
g11
F3.746516947568011e-07
tp4330
Rp4331
sg14
Nsg15
(dp4332
g4328
F1.0
ssbg2
(g3
g4
Ntp4333
Rp4334
(dp4335
g8
F2.0000072709080996e-07
sg9
g2
(g10
g11
F1.351214682056426e-07
tp4336
Rp4337
sg14
Nsg15
(dp4338
g4334
F1.0
ssbg2
(g3
g4
Ntp4339
Rp4340
(dp4341
g8
F2.0000052813884395e-07
sg9
g2
(g10
g11
F1.2997995012835755e-07
tp4342
Rp4343
sg14
Nsg15
(dp4344
g4340
F1.0
ssbg2
(g3
g4
Ntp4345
Rp4346
(dp4347
g8
F1.6110481953482067e-16
sg9
g2
(g10
g11
F1.0892842554256994e-16
tp4348
Rp4349
sg14
Nsg15
(dp4350
g4346
F1.0
ssbF0.0
F0.0
F1.2904
tp4351
sS'eq0b_ge6j_900_1200_mht_600_700'
p4352
(g2
(g3
g4
Ntp4353
Rp4354
(dp4355
g8
F0.7908099293708801
sg9
g2
(g10
g11
F0.6533243121607764
tp4356
Rp4357
sg14
Nsg15
(dp4358
g4354
F1.0
ssbg2
(g3
g4
Ntp4359
Rp4360
(dp4361
g8
F0.19837228953838348
sg9
g2
(g10
g11
F0.09660259525478467
tp4362
Rp4363
sg14
Nsg15
(dp4364
g4360
F1.0
ssbg2
(g3
g4
Ntp4365
Rp4366
(dp4367
g8
F0.560893714427948
sg9
g2
(g10
g11
F0.6276990670491899
tp4368
Rp4369
sg14
Nsg15
(dp4370
g4366
F1.0
ssbg2
(g3
g4
Ntp4371
Rp4372
(dp4373
g8
F0.03154396265745163
sg9
g2
(g10
g11
F0.035973184946835234
tp4374
Rp4375
sg14
Nsg15
(dp4376
g4372
F1.0
ssbF0.0
F0.0
F1.2904
tp4377
sS'eq0b_eq3j_1200_Inf_mht_600_900'
p4378
(g2
(g3
g4
Ntp4379
Rp4380
(dp4381
g8
F4.504513740539551
sg9
g2
(g10
g11
F1.8504816201633834
tp4382
Rp4383
sg14
Nsg15
(dp4384
g4380
F1.0
ssbg2
(g3
g4
Ntp4385
Rp4386
(dp4387
g8
F1.095619797706604
sg9
g2
(g10
g11
F0.48736564545460603
tp4388
Rp4389
sg14
Nsg15
(dp4390
g4386
F1.0
ssbg2
(g3
g4
Ntp4391
Rp4392
(dp4393
g8
F3.4088938236236572
sg9
g2
(g10
g11
F1.3939771526987428
tp4394
Rp4395
sg14
Nsg15
(dp4396
g4392
F1.0
ssbg2
(g3
g4
Ntp4397
Rp4398
(dp4399
g8
F1.2173946295490623e-09
sg9
g2
(g10
g11
F1.0936891573760724e-09
tp4400
Rp4401
sg14
Nsg15
(dp4402
g4398
F1.0
ssbF5.0
F2.2495
F2.8064
tp4403
sS'eq3b_eq3j_600_Inf_mht_600_700'
p4404
(g2
(g3
g4
Ntp4405
Rp4406
(dp4407
g8
F0.01599602773785591
sg9
g2
(g10
g11
F0.005354878484193607
tp4408
Rp4409
sg14
Nsg15
(dp4410
g4406
F1.0
ssbg2
(g3
g4
Ntp4411
Rp4412
(dp4413
g8
F0.0036923259031027555
sg9
g2
(g10
g11
F0.0010107537927024665
tp4414
Rp4415
sg14
Nsg15
(dp4416
g4412
F1.0
ssbg2
(g3
g4
Ntp4417
Rp4418
(dp4419
g8
F0.012303701601922512
sg9
g2
(g10
g11
F0.0028248252839778525
tp4420
Rp4421
sg14
Nsg15
(dp4422
g4418
F1.0
ssbg2
(g3
g4
Ntp4423
Rp4424
(dp4425
g8
F1.2898141756034764e-11
sg9
g2
(g10
g11
F7.195307496569699e-12
tp4426
Rp4427
sg14
Nsg15
(dp4428
g4424
F1.0
ssbF0.0
F0.0
F1.2904
tp4429
sS'eq1b_eq3j_900_1200_mht_600_900'
p4430
(g2
(g3
g4
Ntp4431
Rp4432
(dp4433
g8
F1.836124062538147
sg9
g2
(g10
g11
F0.6710145061988577
tp4434
Rp4435
sg14
Nsg15
(dp4436
g4432
F1.0
ssbg2
(g3
g4
Ntp4437
Rp4438
(dp4439
g8
F0.3677273988723755
sg9
g2
(g10
g11
F0.1368659224613679
tp4440
Rp4441
sg14
Nsg15
(dp4442
g4438
F1.0
ssbg2
(g3
g4
Ntp4443
Rp4444
(dp4445
g8
F1.4683966636657715
sg9
g2
(g10
g11
F0.4079251510132626
tp4446
Rp4447
sg14
Nsg15
(dp4448
g4444
F1.0
ssbg2
(g3
g4
Ntp4449
Rp4450
(dp4451
g8
F3.8465869378612183e-10
sg9
g2
(g10
g11
F2.409480115328541e-10
tp4452
Rp4453
sg14
Nsg15
(dp4454
g4450
F1.0
ssbF2.0
F1.2642
F2.2504
tp4455
sS'eq1b_eq2j_1200_Inf_mht_200_400'
p4456
(g2
(g3
g4
Ntp4457
Rp4458
(dp4459
g8
F0.1250457614660263
sg9
g2
(g10
g11
F0.0472287893598529
tp4460
Rp4461
sg14
Nsg15
(dp4462
g4458
F1.0
ssbg2
(g3
g4
Ntp4463
Rp4464
(dp4465
g8
F0.045166101306676865
sg9
g2
(g10
g11
F0.018016735563762546
tp4466
Rp4467
sg14
Nsg15
(dp4468
g4464
F1.0
ssbg2
(g3
g4
Ntp4469
Rp4470
(dp4471
g8
F0.07987965643405914
sg9
g2
(g10
g11
F0.040498694899217265
tp4472
Rp4473
sg14
Nsg15
(dp4474
g4470
F1.0
ssbg2
(g3
g4
Ntp4475
Rp4476
(dp4477
g8
F2.1227861482508992e-11
sg9
g2
(g10
g11
F2.4289318591584166e-11
tp4478
Rp4479
sg14
Nsg15
(dp4480
g4476
F1.0
ssbF0.0
F0.0
F1.2904
tp4481
sS'eq1b_eq2j_900_1200_mht_600_900'
p4482
(g2
(g3
g4
Ntp4483
Rp4484
(dp4485
g8
F0.8577398061752319
sg9
g2
(g10
g11
F0.40009066031151724
tp4486
Rp4487
sg14
Nsg15
(dp4488
g4484
F1.0
ssbg2
(g3
g4
Ntp4489
Rp4490
(dp4491
g8
F0.14561162889003754
sg9
g2
(g10
g11
F0.06495493468295638
tp4492
Rp4493
sg14
Nsg15
(dp4494
g4490
F1.0
ssbg2
(g3
g4
Ntp4495
Rp4496
(dp4497
g8
F0.7121281623840332
sg9
g2
(g10
g11
F0.2572625762823681
tp4498
Rp4499
sg14
Nsg15
(dp4500
g4496
F1.0
ssbg2
(g3
g4
Ntp4501
Rp4502
(dp4503
g8
F7.734755197441601e-11
sg9
g2
(g10
g11
F5.605941427565853e-11
tp4504
Rp4505
sg14
Nsg15
(dp4506
g4502
F1.0
ssbF4.0
F1.6641
F2.7763999999999998
tp4507
sS'eq2b_eq5j_900_1200_mht_400_600'
p4508
(g2
(g3
g4
Ntp4509
Rp4510
(dp4511
g8
F0.4472161531448364
sg9
g2
(g10
g11
F0.07505460976225059
tp4512
Rp4513
sg14
Nsg15
(dp4514
g4510
F1.0
ssbg2
(g3
g4
Ntp4515
Rp4516
(dp4517
g8
F0.27720907330513
sg9
g2
(g10
g11
F0.05192755970039708
tp4518
Rp4519
sg14
Nsg15
(dp4520
g4516
F1.0
ssbg2
(g3
g4
Ntp4521
Rp4522
(dp4523
g8
F0.17000709474086761
sg9
g2
(g10
g11
F0.02592435211276322
tp4524
Rp4525
sg14
Nsg15
(dp4526
g4522
F1.0
ssbg2
(g3
g4
Ntp4527
Rp4528
(dp4529
g8
F1.0403117256529981e-10
sg9
g2
(g10
g11
F8.81566652824505e-11
tp4530
Rp4531
sg14
Nsg15
(dp4532
g4528
F1.0
ssbF0.0
F0.0
F1.2904
tp4533
sS'eq1b_ge2a_400_600_mht_200_400'
p4534
(g2
(g3
g4
Ntp4535
Rp4536
(dp4537
g8
F120.58953094482422
sg9
g2
(g10
g11
F13.984237778656368
tp4538
Rp4539
sg14
Nsg15
(dp4540
g4536
F1.0
ssbg2
(g3
g4
Ntp4541
Rp4542
(dp4543
g8
F92.37635040283203
sg9
g2
(g10
g11
F10.868738122882023
tp4544
Rp4545
sg14
Nsg15
(dp4546
g4542
F1.0
ssbg2
(g3
g4
Ntp4547
Rp4548
(dp4549
g8
F28.213178634643555
sg9
g2
(g10
g11
F3.6857312424904394
tp4550
Rp4551
sg14
Nsg15
(dp4552
g4548
F1.0
ssbg2
(g3
g4
Ntp4553
Rp4554
(dp4555
g8
F6.524729201373702e-08
sg9
g2
(g10
g11
F4.96616964412187e-08
tp4556
Rp4557
sg14
Nsg15
(dp4558
g4554
F1.0
ssbF115.0
F10.723805294763608
F10.723805294763608
tp4559
sS'eq2b_eq4j_600_900_mht_600_700'
p4560
(g2
(g3
g4
Ntp4561
Rp4562
(dp4563
g8
F0.305286169052124
sg9
g2
(g10
g11
F0.08822720316413865
tp4564
Rp4565
sg14
Nsg15
(dp4566
g4562
F1.0
ssbg2
(g3
g4
Ntp4567
Rp4568
(dp4569
g8
F0.09388662129640579
sg9
g2
(g10
g11
F0.02158650701381088
tp4570
Rp4571
sg14
Nsg15
(dp4572
g4568
F1.0
ssbg2
(g3
g4
Ntp4573
Rp4574
(dp4575
g8
F0.21139952540397644
sg9
g2
(g10
g11
F0.05441933687804253
tp4576
Rp4577
sg14
Nsg15
(dp4578
g4574
F1.0
ssbg2
(g3
g4
Ntp4579
Rp4580
(dp4581
g8
F3.510873536338721e-10
sg9
g2
(g10
g11
F3.00816714852094e-10
tp4582
Rp4583
sg14
Nsg15
(dp4584
g4580
F1.0
ssbF0.0
F0.0
F1.2904
tp4585
sS'eq3b_eq5j_400_600_mht_500_550'
p4586
(g2
(g3
g4
Ntp4587
Rp4588
(dp4589
g8
F4.000004878434993e-07
sg9
g2
(g10
g11
F3.962690769220489e-07
tp4590
Rp4591
sg14
Nsg15
(dp4592
g4588
F1.0
ssbg2
(g3
g4
Ntp4593
Rp4594
(dp4595
g8
F1.9999578171336907e-07
sg9
g2
(g10
g11
F1.389459544464256e-07
tp4596
Rp4597
sg14
Nsg15
(dp4598
g4594
F1.0
ssbg2
(g3
g4
Ntp4599
Rp4600
(dp4601
g8
F2.0000470613013022e-07
sg9
g2
(g10
g11
F1.4125920154324672e-07
tp4602
Rp4603
sg14
Nsg15
(dp4604
g4600
F1.0
ssbg2
(g3
g4
Ntp4605
Rp4606
(dp4607
g8
F1.0506088457973989e-15
sg9
g2
(g10
g11
F6.51905054728422e-16
tp4608
Rp4609
sg14
Nsg15
(dp4610
g4606
F1.0
ssbF0.0
F0.0
F1.2904
tp4611
sS'eq1b_ge6j_1200_Inf_mht_900_950'
p4612
(g2
(g3
g4
Ntp4613
Rp4614
(dp4615
g8
F0.10253909975290298
sg9
g2
(g10
g11
F0.10813814270759833
tp4616
Rp4617
sg14
Nsg15
(dp4618
g4614
F1.0
ssbg2
(g3
g4
Ntp4619
Rp4620
(dp4621
g8
F0.023775625973939896
sg9
g2
(g10
g11
F0.015783463053810547
tp4622
Rp4623
sg14
Nsg15
(dp4624
g4620
F1.0
ssbg2
(g3
g4
Ntp4625
Rp4626
(dp4627
g8
F0.07718665897846222
sg9
g2
(g10
g11
F0.10231440465572252
tp4628
Rp4629
sg14
Nsg15
(dp4630
g4626
F1.0
ssbg2
(g3
g4
Ntp4631
Rp4632
(dp4633
g8
F0.0015768123557791114
sg9
g2
(g10
g11
F0.0014868342797061632
tp4634
Rp4635
sg14
Nsg15
(dp4636
g4632
F1.0
ssbF0.0
F0.0
F1.2904
tp4637
sS'eq3b_ge6j_600_900_mht_500_550'
p4638
(g2
(g3
g4
Ntp4639
Rp4640
(dp4641
g8
F0.06170361116528511
sg9
g2
(g10
g11
F0.018989113188918966
tp4642
Rp4643
sg14
Nsg15
(dp4644
g4640
F1.0
ssbg2
(g3
g4
Ntp4645
Rp4646
(dp4647
g8
F0.04758200794458389
sg9
g2
(g10
g11
F0.013764912257029662
tp4648
Rp4649
sg14
Nsg15
(dp4650
g4646
F1.0
ssbg2
(g3
g4
Ntp4651
Rp4652
(dp4653
g8
F0.014121601358056068
sg9
g2
(g10
g11
F0.011345327815144416
tp4654
Rp4655
sg14
Nsg15
(dp4656
g4652
F1.0
ssbg2
(g3
g4
Ntp4657
Rp4658
(dp4659
g8
F6.526514328974997e-10
sg9
g2
(g10
g11
F6.183987486060332e-10
tp4660
Rp4661
sg14
Nsg15
(dp4662
g4658
F1.0
ssbF1.0
F0.6321
F1.7505000000000002
tp4663
sS'eq3b_ge2a_600_Inf_mht_400_600'
p4664
(g2
(g3
g4
Ntp4665
Rp4666
(dp4667
g8
F0.0202261321246624
sg9
g2
(g10
g11
F0.003956001079858106
tp4668
Rp4669
sg14
Nsg15
(dp4670
g4666
F1.0
ssbg2
(g3
g4
Ntp4671
Rp4672
(dp4673
g8
F0.01585805043578148
sg9
g2
(g10
g11
F0.003452347644470066
tp4674
Rp4675
sg14
Nsg15
(dp4676
g4672
F1.0
ssbg2
(g3
g4
Ntp4677
Rp4678
(dp4679
g8
F0.004368082154542208
sg9
g2
(g10
g11
F0.000845963283899092
tp4680
Rp4681
sg14
Nsg15
(dp4682
g4678
F1.0
ssbg2
(g3
g4
Ntp4683
Rp4684
(dp4685
g8
F3.215711334367266e-12
sg9
g2
(g10
g11
F4.3031580339533905e-12
tp4686
Rp4687
sg14
Nsg15
(dp4688
g4684
F1.0
ssbF0.0
F0.0
F1.2904
tp4689
sS'eq2b_eq2j_600_Inf_mht_600_700'
p4690
(g2
(g3
g4
Ntp4691
Rp4692
(dp4693
g8
F0.24791936576366425
sg9
g2
(g10
g11
F0.10675530607629068
tp4694
Rp4695
sg14
Nsg15
(dp4696
g4692
F1.0
ssbg2
(g3
g4
Ntp4697
Rp4698
(dp4699
g8
F0.061601120978593826
sg9
g2
(g10
g11
F0.019206557373869677
tp4700
Rp4701
sg14
Nsg15
(dp4702
g4698
F1.0
ssbg2
(g3
g4
Ntp4703
Rp4704
(dp4705
g8
F0.18463201820850372
sg9
g2
(g10
g11
F0.057169032391609406
tp4706
Rp4707
sg14
Nsg15
(dp4708
g4704
F1.0
ssbg2
(g3
g4
Ntp4709
Rp4710
(dp4711
g8
F0.0016862154006958008
sg9
g2
(g10
g11
F0.001350179996666629
tp4712
Rp4713
sg14
Nsg15
(dp4714
g4710
F1.0
ssbF1.0
F0.6321
F1.7505000000000002
tp4715
sS'eq1b_eq5j_900_1200_mht_400_600'
p4716
(g2
(g3
g4
Ntp4717
Rp4718
(dp4719
g8
F2.0803356170654297
sg9
g2
(g10
g11
F0.31556738903650267
tp4720
Rp4721
sg14
Nsg15
(dp4722
g4718
F1.0
ssbg2
(g3
g4
Ntp4723
Rp4724
(dp4725
g8
F0.959994912147522
sg9
g2
(g10
g11
F0.16872121600747475
tp4726
Rp4727
sg14
Nsg15
(dp4728
g4724
F1.0
ssbg2
(g3
g4
Ntp4729
Rp4730
(dp4731
g8
F1.1203405857086182
sg9
g2
(g10
g11
F0.14683224583333848
tp4732
Rp4733
sg14
Nsg15
(dp4734
g4730
F1.0
ssbg2
(g3
g4
Ntp4735
Rp4736
(dp4737
g8
F4.881811621615384e-10
sg9
g2
(g10
g11
F3.763021112038065e-10
tp4738
Rp4739
sg14
Nsg15
(dp4740
g4736
F1.0
ssbF0.0
F0.0
F1.2904
tp4741
sS'eq1b_eq5j_400_600_mht_400_500'
p4742
(g2
(g3
g4
Ntp4743
Rp4744
(dp4745
g8
F2.7617363929748535
sg9
g2
(g10
g11
F0.49043017364198327
tp4746
Rp4747
sg14
Nsg15
(dp4748
g4744
F1.0
ssbg2
(g3
g4
Ntp4749
Rp4750
(dp4751
g8
F1.6920336484909058
sg9
g2
(g10
g11
F0.31415156909138514
tp4752
Rp4753
sg14
Nsg15
(dp4754
g4750
F1.0
ssbg2
(g3
g4
Ntp4755
Rp4756
(dp4757
g8
F1.0697026252746582
sg9
g2
(g10
g11
F0.25815622651151193
tp4758
Rp4759
sg14
Nsg15
(dp4760
g4756
F1.0
ssbg2
(g3
g4
Ntp4761
Rp4762
(dp4763
g8
F1.4578776408313843e-08
sg9
g2
(g10
g11
F1.0401789597250113e-08
tp4764
Rp4765
sg14
Nsg15
(dp4766
g4762
F1.0
ssbF6.0
F2.1769
F3.2782999999999998
tp4767
sS'eq1b_eq4j_900_1200_mht_400_600'
p4768
(g2
(g3
g4
Ntp4769
Rp4770
(dp4771
g8
F3.341648578643799
sg9
g2
(g10
g11
F0.49298939125144936
tp4772
Rp4773
sg14
Nsg15
(dp4774
g4770
F1.0
ssbg2
(g3
g4
Ntp4775
Rp4776
(dp4777
g8
F1.2210793495178223
sg9
g2
(g10
g11
F0.21610518628666295
tp4778
Rp4779
sg14
Nsg15
(dp4780
g4776
F1.0
ssbg2
(g3
g4
Ntp4781
Rp4782
(dp4783
g8
F2.1205692291259766
sg9
g2
(g10
g11
F0.27267360686662145
tp4784
Rp4785
sg14
Nsg15
(dp4786
g4782
F1.0
ssbg2
(g3
g4
Ntp4787
Rp4788
(dp4789
g8
F8.076178614757623e-10
sg9
g2
(g10
g11
F6.235160741221534e-10
tp4790
Rp4791
sg14
Nsg15
(dp4792
g4788
F1.0
ssbF4.0
F1.6641
F2.7763999999999998
tp4793
sS'eq2b_ge6j_900_1200_mht_600_700'
p4794
(g2
(g3
g4
Ntp4795
Rp4796
(dp4797
g8
F0.06364089250564575
sg9
g2
(g10
g11
F0.04066416429842209
tp4798
Rp4799
sg14
Nsg15
(dp4800
g4796
F1.0
ssbg2
(g3
g4
Ntp4801
Rp4802
(dp4803
g8
F0.029669150710105896
sg9
g2
(g10
g11
F0.01022433512895565
tp4804
Rp4805
sg14
Nsg15
(dp4806
g4802
F1.0
ssbg2
(g3
g4
Ntp4807
Rp4808
(dp4809
g8
F0.03141840547323227
sg9
g2
(g10
g11
F0.03763756751565248
tp4810
Rp4811
sg14
Nsg15
(dp4812
g4808
F1.0
ssbg2
(g3
g4
Ntp4813
Rp4814
(dp4815
g8
F0.002553338650614023
sg9
g2
(g10
g11
F0.0029118595483087063
tp4816
Rp4817
sg14
Nsg15
(dp4818
g4814
F1.0
ssbF0.0
F0.0
F1.2904
tp4819
sS'eq2b_ge2a_900_Inf_mht_900_950'
p4820
(g2
(g3
g4
Ntp4821
Rp4822
(dp4823
g8
F0.05322311446070671
sg9
g2
(g10
g11
F0.028339597778514802
tp4824
Rp4825
sg14
Nsg15
(dp4826
g4822
F1.0
ssbg2
(g3
g4
Ntp4827
Rp4828
(dp4829
g8
F0.01611863076686859
sg9
g2
(g10
g11
F0.007149873234968921
tp4830
Rp4831
sg14
Nsg15
(dp4832
g4828
F1.0
ssbg2
(g3
g4
Ntp4833
Rp4834
(dp4835
g8
F0.03710448369383812
sg9
g2
(g10
g11
F0.022376285753123
tp4836
Rp4837
sg14
Nsg15
(dp4838
g4834
F1.0
ssbg2
(g3
g4
Ntp4839
Rp4840
(dp4841
g8
F0.0
sg9
g2
(g10
g11
F0.0
tp4842
Rp4843
sg14
Nsg15
(dp4844
g4840
F1.0
ssbF0.0
F0.0
F1.2904
tp4845
sS'eq0b_ge6j_900_1200_mht_400_600'
p4846
(g2
(g3
g4
Ntp4847
Rp4848
(dp4849
g8
F5.21663761138916
sg9
g2
(g10
g11
F2.347232568882316
tp4850
Rp4851
sg14
Nsg15
(dp4852
g4848
F1.0
ssbg2
(g3
g4
Ntp4853
Rp4854
(dp4855
g8
F1.5711015462875366
sg9
g2
(g10
g11
F0.32284396347823124
tp4856
Rp4857
sg14
Nsg15
(dp4858
g4854
F1.0
ssbg2
(g3
g4
Ntp4859
Rp4860
(dp4861
g8
F3.4370384216308594
sg9
g2
(g10
g11
F1.6289145168030634
tp4862
Rp4863
sg14
Nsg15
(dp4864
g4860
F1.0
ssbg2
(g3
g4
Ntp4865
Rp4866
(dp4867
g8
F0.20849774777889252
sg9
g2
(g10
g11
F0.16407621780448084
tp4868
Rp4869
sg14
Nsg15
(dp4870
g4866
F1.0
ssbF7.0
F2.7496
F3.3005999999999993
tp4871
sS'eq0b_eq3j_600_900_mht_600_700'
p4872
(g2
(g3
g4
Ntp4873
Rp4874
(dp4875
g8
F29.053234100341797
sg9
g2
(g10
g11
F9.893300388552094
tp4876
Rp4877
sg14
Nsg15
(dp4878
g4874
F1.0
ssbg2
(g3
g4
Ntp4879
Rp4880
(dp4881
g8
F6.922511100769043
sg9
g2
(g10
g11
F2.1848412623238183
tp4882
Rp4883
sg14
Nsg15
(dp4884
g4880
F1.0
ssbg2
(g3
g4
Ntp4885
Rp4886
(dp4887
g8
F22.130722045898438
sg9
g2
(g10
g11
F5.329758501432663
tp4888
Rp4889
sg14
Nsg15
(dp4890
g4886
F1.0
ssbg2
(g3
g4
Ntp4891
Rp4892
(dp4893
g8
F2.3402982662901195e-08
sg9
g2
(g10
g11
F1.5857826350656883e-08
tp4894
Rp4895
sg14
Nsg15
(dp4896
g4892
F1.0
ssbF28.0
F5.1831
F5.8222999999999985
tp4897
sS'eq3b_eq5j_400_600_mht_200_400'
p4898
(g2
(g3
g4
Ntp4899
Rp4900
(dp4901
g8
F3.730248212814331
sg9
g2
(g10
g11
F0.6189513216121205
tp4902
Rp4903
sg14
Nsg15
(dp4904
g4900
F1.0
ssbg2
(g3
g4
Ntp4905
Rp4906
(dp4907
g8
F3.505434513092041
sg9
g2
(g10
g11
F0.4538409135185205
tp4908
Rp4909
sg14
Nsg15
(dp4910
g4906
F1.0
ssbg2
(g3
g4
Ntp4911
Rp4912
(dp4913
g8
F0.22481364011764526
sg9
g2
(g10
g11
F0.027622198866891802
tp4914
Rp4915
sg14
Nsg15
(dp4916
g4912
F1.0
ssbg2
(g3
g4
Ntp4917
Rp4918
(dp4919
g8
F1.9667581341309415e-08
sg9
g2
(g10
g11
F1.2321584144975128e-08
tp4920
Rp4921
sg14
Nsg15
(dp4922
g4918
F1.0
ssbF1.0
F0.6321
F1.7505000000000002
tp4923
sS'eq3b_ge2a_400_600_mht_500_550'
p4924
(g2
(g3
g4
Ntp4925
Rp4926
(dp4927
g8
F3.9990857203520136e-07
sg9
g2
(g10
g11
F3.9533946714046725e-07
tp4928
Rp4929
sg14
Nsg15
(dp4930
g4926
F1.0
ssbg2
(g3
g4
Ntp4931
Rp4932
(dp4933
g8
F1.9999670541892556e-07
sg9
g2
(g10
g11
F1.3841305717259514e-07
tp4934
Rp4935
sg14
Nsg15
(dp4936
g4932
F1.0
ssbg2
(g3
g4
Ntp4937
Rp4938
(dp4939
g8
F1.9991188082713052e-07
sg9
g2
(g10
g11
F1.4114902616273912e-07
tp4940
Rp4941
sg14
Nsg15
(dp4942
g4938
F1.0
ssbg2
(g3
g4
Ntp4943
Rp4944
(dp4945
g8
F1.0775429053333095e-16
sg9
g2
(g10
g11
F7.150961600090458e-17
tp4946
Rp4947
sg14
Nsg15
(dp4948
g4944
F1.0
ssbF0.0
F0.0
F1.2904
tp4949
sS'eq0b_eq5j_900_1200_mht_600_700'
p4950
(g2
(g3
g4
Ntp4951
Rp4952
(dp4953
g8
F3.649343490600586
sg9
g2
(g10
g11
F1.3852524708366285
tp4954
Rp4955
sg14
Nsg15
(dp4956
g4952
F1.0
ssbg2
(g3
g4
Ntp4957
Rp4958
(dp4959
g8
F0.8834508061408997
sg9
g2
(g10
g11
F0.2969654066059582
tp4960
Rp4961
sg14
Nsg15
(dp4962
g4958
F1.0
ssbg2
(g3
g4
Ntp4963
Rp4964
(dp4965
g8
F2.765892505645752
sg9
g2
(g10
g11
F0.8504994832193732
tp4966
Rp4967
sg14
Nsg15
(dp4968
g4964
F1.0
ssbg2
(g3
g4
Ntp4969
Rp4970
(dp4971
g8
F8.531549910983927e-10
sg9
g2
(g10
g11
F6.54556544369955e-10
tp4972
Rp4973
sg14
Nsg15
(dp4974
g4970
F1.0
ssbF3.0
F1.8964
F2.3011999999999997
tp4975
sS'eq2b_eq5j_600_900_mht_400_600'
p4976
(g2
(g3
g4
Ntp4977
Rp4978
(dp4979
g8
F2.1435534954071045
sg9
g2
(g10
g11
F0.3379536582056843
tp4980
Rp4981
sg14
Nsg15
(dp4982
g4978
F1.0
ssbg2
(g3
g4
Ntp4983
Rp4984
(dp4985
g8
F1.5354986190795898
sg9
g2
(g10
g11
F0.2404384645522513
tp4986
Rp4987
sg14
Nsg15
(dp4988
g4984
F1.0
ssbg2
(g3
g4
Ntp4989
Rp4990
(dp4991
g8
F0.6080548763275146
sg9
g2
(g10
g11
F0.10033620034456446
tp4992
Rp4993
sg14
Nsg15
(dp4994
g4990
F1.0
ssbg2
(g3
g4
Ntp4995
Rp4996
(dp4997
g8
F3.730728614925738e-09
sg9
g2
(g10
g11
F2.9529602832236127e-09
tp4998
Rp4999
sg14
Nsg15
(dp5000
g4996
F1.0
ssbF1.0
F0.6321
F1.7505000000000002
tp5001
sS'eq2b_eq3j_600_900_mht_600_700'
p5002
(g2
(g3
g4
Ntp5003
Rp5004
(dp5005
g8
F0.40438610315322876
sg9
g2
(g10
g11
F0.13653076763421482
tp5006
Rp5007
sg14
Nsg15
(dp5008
g5004
F1.0
ssbg2
(g3
g4
Ntp5009
Rp5010
(dp5011
g8
F0.10341797769069672
sg9
g2
(g10
g11
F0.027598310207709857
tp5012
Rp5013
sg14
Nsg15
(dp5014
g5010
F1.0
ssbg2
(g3
g4
Ntp5015
Rp5016
(dp5017
g8
F0.30096811056137085
sg9
g2
(g10
g11
F0.07804753754786102
tp5018
Rp5019
sg14
Nsg15
(dp5020
g5016
F1.0
ssbg2
(g3
g4
Ntp5021
Rp5022
(dp5023
g8
F3.250013591582501e-10
sg9
g2
(g10
g11
F2.1964425092245725e-10
tp5024
Rp5025
sg14
Nsg15
(dp5026
g5022
F1.0
ssbF0.0
F0.0
F1.2904
tp5027
sS'eq3b_ge6j_900_1200_mht_700_750'
p5028
(g2
(g3
g4
Ntp5029
Rp5030
(dp5031
g8
F4.086154206106585e-07
sg9
g2
(g10
g11
F3.9660010714391895e-07
tp5032
Rp5033
sg14
Nsg15
(dp5034
g5030
F1.0
ssbg2
(g3
g4
Ntp5035
Rp5036
(dp5037
g8
F2.0002181599920732e-07
sg9
g2
(g10
g11
F1.411565190316343e-07
tp5038
Rp5039
sg14
Nsg15
(dp5040
g5036
F1.0
ssbg2
(g3
g4
Ntp5041
Rp5042
(dp5043
g8
F2.0022943658659642e-07
sg9
g2
(g10
g11
F1.4133375093391233e-07
tp5044
Rp5045
sg14
Nsg15
(dp5046
g5042
F1.0
ssbg2
(g3
g4
Ntp5047
Rp5048
(dp5049
g8
F8.364167136676315e-09
sg9
g2
(g10
g11
F6.575119090248106e-09
tp5050
Rp5051
sg14
Nsg15
(dp5052
g5048
F1.0
ssbF0.0
F0.0
F1.2904
tp5053
sS'eq1b_ge6j_600_900_mht_500_550'
p5054
(g2
(g3
g4
Ntp5055
Rp5056
(dp5057
g8
F1.4955573081970215
sg9
g2
(g10
g11
F0.5732477107911083
tp5058
Rp5059
sg14
Nsg15
(dp5060
g5056
F1.0
ssbg2
(g3
g4
Ntp5061
Rp5062
(dp5063
g8
F0.8407670855522156
sg9
g2
(g10
g11
F0.23409157464186123
tp5064
Rp5065
sg14
Nsg15
(dp5066
g5062
F1.0
ssbg2
(g3
g4
Ntp5067
Rp5068
(dp5069
g8
F0.6547902226448059
sg9
g2
(g10
g11
F0.4967647406162605
tp5070
Rp5071
sg14
Nsg15
(dp5072
g5068
F1.0
ssbg2
(g3
g4
Ntp5073
Rp5074
(dp5075
g8
F1.5912304363041585e-08
sg9
g2
(g10
g11
F1.5077210646274274e-08
tp5076
Rp5077
sg14
Nsg15
(dp5078
g5074
F1.0
ssbF2.0
F1.2642
F2.2504
tp5079
sS'eq1b_eq2j_200_400_mht_200_Inf'
p5080
(g2
(g3
g4
Ntp5081
Rp5082
(dp5083
g8
F373.6662902832031
sg9
g2
(g10
g11
F104.52128371771943
tp5084
Rp5085
sg14
Nsg15
(dp5086
g5082
F1.0
ssbg2
(g3
g4
Ntp5087
Rp5088
(dp5089
g8
F212.24220275878906
sg9
g2
(g10
g11
F34.68688238470435
tp5090
Rp5091
sg14
Nsg15
(dp5092
g5088
F1.0
ssbg2
(g3
g4
Ntp5093
Rp5094
(dp5095
g8
F161.31480407714844
sg9
g2
(g10
g11
F24.12191538327362
tp5096
Rp5097
sg14
Nsg15
(dp5098
g5094
F1.0
ssbg2
(g3
g4
Ntp5099
Rp5100
(dp5101
g8
F0.10930000245571136
sg9
g2
(g10
g11
F0.06036277561893052
tp5102
Rp5103
sg14
Nsg15
(dp5104
g5100
F1.0
ssbF493.0
F22.20360331117452
F22.20360331117452
tp5105
sS'eq3b_eq3j_200_400_mht_200_Inf'
p5106
(g2
(g3
g4
Ntp5107
Rp5108
(dp5109
g8
F1.5871999263763428
sg9
g2
(g10
g11
F0.33915447622475237
tp5110
Rp5111
sg14
Nsg15
(dp5112
g5108
F1.0
ssbg2
(g3
g4
Ntp5113
Rp5114
(dp5115
g8
F1.3703999519348145
sg9
g2
(g10
g11
F0.23020772861959396
tp5116
Rp5117
sg14
Nsg15
(dp5118
g5114
F1.0
ssbg2
(g3
g4
Ntp5119
Rp5120
(dp5121
g8
F0.2168000042438507
sg9
g2
(g10
g11
F0.027939061279109112
tp5122
Rp5123
sg14
Nsg15
(dp5124
g5120
F1.0
ssbg2
(g3
g4
Ntp5125
Rp5126
(dp5127
g8
F1.4421999594560475e-08
sg9
g2
(g10
g11
F1.0610405826138637e-08
tp5128
Rp5129
sg14
Nsg15
(dp5130
g5126
F1.0
ssbF3.0
F1.8964
F2.3011999999999997
tp5131
sS'eq0b_eq5j_1200_Inf_mht_900_950'
p5132
(g2
(g3
g4
Ntp5133
Rp5134
(dp5135
g8
F0.7921916246414185
sg9
g2
(g10
g11
F0.5374658795549639
tp5136
Rp5137
sg14
Nsg15
(dp5138
g5134
F1.0
ssbg2
(g3
g4
Ntp5139
Rp5140
(dp5141
g8
F0.12659204006195068
sg9
g2
(g10
g11
F0.09093247245707821
tp5142
Rp5143
sg14
Nsg15
(dp5144
g5140
F1.0
ssbg2
(g3
g4
Ntp5145
Rp5146
(dp5147
g8
F0.6655995845794678
sg9
g2
(g10
g11
F0.46272993815670055
tp5148
Rp5149
sg14
Nsg15
(dp5150
g5146
F1.0
ssbg2
(g3
g4
Ntp5151
Rp5152
(dp5153
g8
F1.7847581745833452e-10
sg9
g2
(g10
g11
F1.5720424522568152e-10
tp5154
Rp5155
sg14
Nsg15
(dp5156
g5152
F1.0
ssbF2.0
F1.2642
F2.2504
tp5157
sS'eq1b_eq2j_600_900_mht_200_400'
p5158
(g2
(g3
g4
Ntp5159
Rp5160
(dp5161
g8
F3.124936103820801
sg9
g2
(g10
g11
F0.9439482827971578
tp5162
Rp5163
sg14
Nsg15
(dp5164
g5160
F1.0
ssbg2
(g3
g4
Ntp5165
Rp5166
(dp5167
g8
F1.1008374691009521
sg9
g2
(g10
g11
F0.3102967374088584
tp5168
Rp5169
sg14
Nsg15
(dp5170
g5166
F1.0
ssbg2
(g3
g4
Ntp5171
Rp5172
(dp5173
g8
F2.0027847290039062
sg9
g2
(g10
g11
F0.6162778171814898
tp5174
Rp5175
sg14
Nsg15
(dp5176
g5172
F1.0
ssbg2
(g3
g4
Ntp5177
Rp5178
(dp5179
g8
F0.02131412737071514
sg9
g2
(g10
g11
F0.020732411102924612
tp5180
Rp5181
sg14
Nsg15
(dp5182
g5178
F1.0
ssbF2.0
F1.2642
F2.2504
tp5183
sS'eq2b_ge2a_400_600_mht_400_500'
p5184
(g2
(g3
g4
Ntp5185
Rp5186
(dp5187
g8
F3.049870491027832
sg9
g2
(g10
g11
F0.4139333156378233
tp5188
Rp5189
sg14
Nsg15
(dp5190
g5186
F1.0
ssbg2
(g3
g4
Ntp5191
Rp5192
(dp5193
g8
F1.2404955625534058
sg9
g2
(g10
g11
F0.1631768070546951
tp5194
Rp5195
sg14
Nsg15
(dp5196
g5192
F1.0
ssbg2
(g3
g4
Ntp5197
Rp5198
(dp5199
g8
F1.8093748092651367
sg9
g2
(g10
g11
F0.2531329754173428
tp5200
Rp5201
sg14
Nsg15
(dp5202
g5198
F1.0
ssbg2
(g3
g4
Ntp5203
Rp5204
(dp5205
g8
F1.6475150133032912e-09
sg9
g2
(g10
g11
F1.075403411354987e-09
tp5206
Rp5207
sg14
Nsg15
(dp5208
g5204
F1.0
ssbF1.0
F0.6321
F1.7505000000000002
tp5209
sS'eq1b_ge6j_600_900_mht_400_500'
p5210
(g2
(g3
g4
Ntp5211
Rp5212
(dp5213
g8
F2.874232053756714
sg9
g2
(g10
g11
F0.8856524942527808
tp5214
Rp5215
sg14
Nsg15
(dp5216
g5212
F1.0
ssbg2
(g3
g4
Ntp5217
Rp5218
(dp5219
g8
F1.7683398723602295
sg9
g2
(g10
g11
F0.3311098774055636
tp5220
Rp5221
sg14
Nsg15
(dp5222
g5218
F1.0
ssbg2
(g3
g4
Ntp5223
Rp5224
(dp5225
g8
F1.1058921813964844
sg9
g2
(g10
g11
F0.5719241512000977
tp5226
Rp5227
sg14
Nsg15
(dp5228
g5224
F1.0
ssbg2
(g3
g4
Ntp5229
Rp5230
(dp5231
g8
F3.07561833778891e-08
sg9
g2
(g10
g11
F2.4751123282812394e-08
tp5232
Rp5233
sg14
Nsg15
(dp5234
g5230
F1.0
ssbF2.0
F1.2642
F2.2504
tp5235
sS'eq0b_eq4j_1200_Inf_mht_400_600'
p5236
(g2
(g3
g4
Ntp5237
Rp5238
(dp5239
g8
F5.462604522705078
sg9
g2
(g10
g11
F1.1352257430982478
tp5240
Rp5241
sg14
Nsg15
(dp5242
g5238
F1.0
ssbg2
(g3
g4
Ntp5243
Rp5244
(dp5245
g8
F1.5811847448349
sg9
g2
(g10
g11
F0.43237222801746994
tp5246
Rp5247
sg14
Nsg15
(dp5248
g5244
F1.0
ssbg2
(g3
g4
Ntp5249
Rp5250
(dp5251
g8
F3.8814196586608887
sg9
g2
(g10
g11
F0.7766306549804554
tp5252
Rp5253
sg14
Nsg15
(dp5254
g5250
F1.0
ssbg2
(g3
g4
Ntp5255
Rp5256
(dp5257
g8
F7.824021430735684e-10
sg9
g2
(g10
g11
F8.72422399912399e-10
tp5258
Rp5259
sg14
Nsg15
(dp5260
g5256
F1.0
ssbF1.0
F0.6321
F1.7505000000000002
tp5261
sS'eq2b_eq3j_200_400_mht_200_Inf'
p5262
(g2
(g3
g4
Ntp5263
Rp5264
(dp5265
g8
F54.179901123046875
sg9
g2
(g10
g11
F10.729139461939619
tp5266
Rp5267
sg14
Nsg15
(dp5268
g5264
F1.0
ssbg2
(g3
g4
Ntp5269
Rp5270
(dp5271
g8
F43.755096435546875
sg9
g2
(g10
g11
F6.047996782049705
tp5272
Rp5273
sg14
Nsg15
(dp5274
g5270
F1.0
ssbg2
(g3
g4
Ntp5275
Rp5276
(dp5277
g8
F10.424799919128418
sg9
g2
(g10
g11
F1.1403285981806355
tp5278
Rp5279
sg14
Nsg15
(dp5280
g5276
F1.0
ssbg2
(g3
g4
Ntp5281
Rp5282
(dp5283
g8
F4.910500024379871e-07
sg9
g2
(g10
g11
F3.145945804341558e-07
tp5284
Rp5285
sg14
Nsg15
(dp5286
g5282
F1.0
ssbF63.0
F7.937253933193772
F7.937253933193772
tp5287
sS'eq1b_eq2j_600_900_mht_700_750'
p5288
(g2
(g3
g4
Ntp5289
Rp5290
(dp5291
g8
F4.0137359746950096e-07
sg9
g2
(g10
g11
F3.897673432716195e-07
tp5292
Rp5293
sg14
Nsg15
(dp5294
g5290
F1.0
ssbg2
(g3
g4
Ntp5295
Rp5296
(dp5297
g8
F1.9999717437713116e-07
sg9
g2
(g10
g11
F1.393306234168205e-07
tp5298
Rp5299
sg14
Nsg15
(dp5300
g5296
F1.0
ssbg2
(g3
g4
Ntp5301
Rp5302
(dp5303
g8
F2.0000246081508521e-07
sg9
g2
(g10
g11
F1.3665980894252228e-07
tp5304
Rp5305
sg14
Nsg15
(dp5306
g5302
F1.0
ssbg2
(g3
g4
Ntp5307
Rp5308
(dp5309
g8
F1.3739454018946162e-09
sg9
g2
(g10
g11
F1.2404453900452217e-09
tp5310
Rp5311
sg14
Nsg15
(dp5312
g5308
F1.0
ssbF0.0
F0.0
F1.2904
tp5313
sS'eq2b_eq3j_600_900_mht_200_400'
p5314
(g2
(g3
g4
Ntp5315
Rp5316
(dp5317
g8
F1.1403831243515015
sg9
g2
(g10
g11
F0.21585601373265184
tp5318
Rp5319
sg14
Nsg15
(dp5320
g5316
F1.0
ssbg2
(g3
g4
Ntp5321
Rp5322
(dp5323
g8
F0.4839649200439453
sg9
g2
(g10
g11
F0.10028584574780834
tp5324
Rp5325
sg14
Nsg15
(dp5326
g5322
F1.0
ssbg2
(g3
g4
Ntp5327
Rp5328
(dp5329
g8
F0.6564182639122009
sg9
g2
(g10
g11
F0.11891295458003902
tp5330
Rp5331
sg14
Nsg15
(dp5332
g5328
F1.0
ssbg2
(g3
g4
Ntp5333
Rp5334
(dp5335
g8
F9.169820458510003e-10
sg9
g2
(g10
g11
F7.564204173266931e-10
tp5336
Rp5337
sg14
Nsg15
(dp5338
g5334
F1.0
ssbF1.0
F0.6321
F1.7505000000000002
tp5339
sS'eq0b_eq1j_400_600_mht_200_Inf'
p5340
(g2
(g3
g4
Ntp5341
Rp5342
(dp5343
g8
F920.5366821289062
sg9
g2
(g10
g11
F73.41372061815149
tp5344
Rp5345
sg14
Nsg15
(dp5346
g5342
F1.0
ssbg2
(g3
g4
Ntp5347
Rp5348
(dp5349
g8
F256.5343017578125
sg9
g2
(g10
g11
F31.952326395888218
tp5350
Rp5351
sg14
Nsg15
(dp5352
g5348
F1.0
ssbg2
(g3
g4
Ntp5353
Rp5354
(dp5355
g8
F664.0023803710938
sg9
g2
(g10
g11
F34.866571001999894
tp5356
Rp5357
sg14
Nsg15
(dp5358
g5354
F1.0
ssbg2
(g3
g4
Ntp5359
Rp5360
(dp5361
g8
F0.0
sg9
g2
(g10
g11
F0.0
tp5362
Rp5363
sg14
Nsg15
(dp5364
g5360
F1.0
ssbF1009.0
F31.76476034853718
F31.76476034853718
tp5365
sS'eq2b_eq3j_600_900_mht_700_750'
p5366
(g2
(g3
g4
Ntp5367
Rp5368
(dp5369
g8
F4.000279716365185e-07
sg9
g2
(g10
g11
F3.972485235763559e-07
tp5370
Rp5371
sg14
Nsg15
(dp5372
g5368
F1.0
ssbg2
(g3
g4
Ntp5373
Rp5374
(dp5375
g8
F2.0001860434604168e-07
sg9
g2
(g10
g11
F1.4062143995214103e-07
tp5376
Rp5377
sg14
Nsg15
(dp5378
g5374
F1.0
ssbg2
(g3
g4
Ntp5379
Rp5380
(dp5381
g8
F2.000093672904768e-07
sg9
g2
(g10
g11
F1.4027835861496202e-07
tp5382
Rp5383
sg14
Nsg15
(dp5384
g5380
F1.0
ssbg2
(g3
g4
Ntp5385
Rp5386
(dp5387
g8
F1.611007696585416e-16
sg9
g2
(g10
g11
F1.0892509093718671e-16
tp5388
Rp5389
sg14
Nsg15
(dp5390
g5386
F1.0
ssbF0.0
F0.0
F1.2904
tp5391
sS'eq3b_ge6j_1200_Inf_mht_200_400'
p5392
(g2
(g3
g4
Ntp5393
Rp5394
(dp5395
g8
F0.05078374594449997
sg9
g2
(g10
g11
F0.016608995008024485
tp5396
Rp5397
sg14
Nsg15
(dp5398
g5394
F1.0
ssbg2
(g3
g4
Ntp5399
Rp5400
(dp5401
g8
F0.045123130083084106
sg9
g2
(g10
g11
F0.013603830628263489
tp5402
Rp5403
sg14
Nsg15
(dp5404
g5400
F1.0
ssbg2
(g3
g4
Ntp5405
Rp5406
(dp5407
g8
F0.004915886092931032
sg9
g2
(g10
g11
F0.006055042617904892
tp5408
Rp5409
sg14
Nsg15
(dp5410
g5406
F1.0
ssbg2
(g3
g4
Ntp5411
Rp5412
(dp5413
g8
F0.0007447306998074055
sg9
g2
(g10
g11
F0.0007022176955105118
tp5414
Rp5415
sg14
Nsg15
(dp5416
g5412
F1.0
ssbF0.0
F0.0
F1.2904
tp5417
sS'eq3b_ge2a_600_Inf_mht_600_700'
p5418
(g2
(g3
g4
Ntp5419
Rp5420
(dp5421
g8
F0.011187061667442322
sg9
g2
(g10
g11
F0.0028425141867937423
tp5422
Rp5423
sg14
Nsg15
(dp5424
g5420
F1.0
ssbg2
(g3
g4
Ntp5425
Rp5426
(dp5427
g8
F0.005640460643917322
sg9
g2
(g10
g11
F0.0014009188888657192
tp5428
Rp5429
sg14
Nsg15
(dp5430
g5426
F1.0
ssbg2
(g3
g4
Ntp5431
Rp5432
(dp5433
g8
F0.005546601023525
sg9
g2
(g10
g11
F0.002132419251795677
tp5434
Rp5435
sg14
Nsg15
(dp5436
g5432
F1.0
ssbg2
(g3
g4
Ntp5437
Rp5438
(dp5439
g8
F1.7827610047926878e-12
sg9
g2
(g10
g11
F2.3853946168545066e-12
tp5440
Rp5441
sg14
Nsg15
(dp5442
g5438
F1.0
ssbF0.0
F0.0
F1.2904
tp5443
sS'eq2b_ge2a_200_400_mht_200_Inf'
p5444
(g2
(g3
g4
Ntp5445
Rp5446
(dp5447
g8
F244.21560668945312
sg9
g2
(g10
g11
F28.57523922690762
tp5448
Rp5449
sg14
Nsg15
(dp5450
g5446
F1.0
ssbg2
(g3
g4
Ntp5451
Rp5452
(dp5453
g8
F180.25599670410156
sg9
g2
(g10
g11
F14.194948141306293
tp5454
Rp5455
sg14
Nsg15
(dp5456
g5452
F1.0
ssbg2
(g3
g4
Ntp5457
Rp5458
(dp5459
g8
F62.254600524902344
sg9
g2
(g10
g11
F4.982906848089605
tp5460
Rp5461
sg14
Nsg15
(dp5462
g5458
F1.0
ssbg2
(g3
g4
Ntp5463
Rp5464
(dp5465
g8
F1.7049999237060547
sg9
g2
(g10
g11
F0.8674912039451
tp5466
Rp5467
sg14
Nsg15
(dp5468
g5464
F1.0
ssbF274.0
F16.55294535724685
F16.55294535724685
tp5469
sS'eq2b_eq5j_900_1200_mht_600_700'
p5470
(g2
(g3
g4
Ntp5471
Rp5472
(dp5473
g8
F0.17832276225090027
sg9
g2
(g10
g11
F0.057644672627051745
tp5474
Rp5475
sg14
Nsg15
(dp5476
g5472
F1.0
ssbg2
(g3
g4
Ntp5477
Rp5478
(dp5479
g8
F0.06877318769693375
sg9
g2
(g10
g11
F0.01682656168140222
tp5480
Rp5481
sg14
Nsg15
(dp5482
g5478
F1.0
ssbg2
(g3
g4
Ntp5483
Rp5484
(dp5485
g8
F0.10954958200454712
sg9
g2
(g10
g11
F0.03507189246077563
tp5486
Rp5487
sg14
Nsg15
(dp5488
g5484
F1.0
ssbg2
(g3
g4
Ntp5489
Rp5490
(dp5491
g8
F4.145509630015809e-11
sg9
g2
(g10
g11
F3.258613327947703e-11
tp5492
Rp5493
sg14
Nsg15
(dp5494
g5490
F1.0
ssbF0.0
F0.0
F1.2904
tp5495
sS'eq0b_eq3j_900_1200_mht_200_400'
p5496
(g2
(g3
g4
Ntp5497
Rp5498
(dp5499
g8
F34.675437927246094
sg9
g2
(g10
g11
F6.0306168709137875
tp5500
Rp5501
sg14
Nsg15
(dp5502
g5498
F1.0
ssbg2
(g3
g4
Ntp5503
Rp5504
(dp5505
g8
F13.009294509887695
sg9
g2
(g10
g11
F2.654221386148302
tp5506
Rp5507
sg14
Nsg15
(dp5508
g5504
F1.0
ssbg2
(g3
g4
Ntp5509
Rp5510
(dp5511
g8
F21.66614532470703
sg9
g2
(g10
g11
F3.3663663283234233
tp5512
Rp5513
sg14
Nsg15
(dp5514
g5510
F1.0
ssbg2
(g3
g4
Ntp5515
Rp5516
(dp5517
g8
F7.2688504104689855e-09
sg9
g2
(g10
g11
F4.789064084271313e-09
tp5518
Rp5519
sg14
Nsg15
(dp5520
g5516
F1.0
ssbF29.0
F5.1753
F5.827500000000001
tp5521
sS'eq0b_eq4j_1200_Inf_mht_200_400'
p5522
(g2
(g3
g4
Ntp5523
Rp5524
(dp5525
g8
F3.0059995651245117
sg9
g2
(g10
g11
F0.856559396798693
tp5526
Rp5527
sg14
Nsg15
(dp5528
g5524
F1.0
ssbg2
(g3
g4
Ntp5529
Rp5530
(dp5531
g8
F1.1676366329193115
sg9
g2
(g10
g11
F0.2966556582033577
tp5532
Rp5533
sg14
Nsg15
(dp5534
g5530
F1.0
ssbg2
(g3
g4
Ntp5535
Rp5536
(dp5537
g8
F1.8383629322052002
sg9
g2
(g10
g11
F0.7137725174486891
tp5538
Rp5539
sg14
Nsg15
(dp5540
g5536
F1.0
ssbg2
(g3
g4
Ntp5541
Rp5542
(dp5543
g8
F4.3101891500363365e-10
sg9
g2
(g10
g11
F4.804964920320704e-10
tp5544
Rp5545
sg14
Nsg15
(dp5546
g5542
F1.0
ssbF1.0
F0.6321
F1.7505000000000002
tp5547
sS'eq1b_ge6j_600_900_mht_200_400'
p5548
(g2
(g3
g4
Ntp5549
Rp5550
(dp5551
g8
F18.315311431884766
sg9
g2
(g10
g11
F4.197046167628267
tp5552
Rp5553
sg14
Nsg15
(dp5554
g5550
F1.0
ssbg2
(g3
g4
Ntp5555
Rp5556
(dp5557
g8
F14.578693389892578
sg9
g2
(g10
g11
F2.8442219302775715
tp5558
Rp5559
sg14
Nsg15
(dp5560
g5556
F1.0
ssbg2
(g3
g4
Ntp5561
Rp5562
(dp5563
g8
F3.7366175651550293
sg9
g2
(g10
g11
F1.089478930594787
tp5564
Rp5565
sg14
Nsg15
(dp5566
g5562
F1.0
ssbg2
(g3
g4
Ntp5567
Rp5568
(dp5569
g8
F1.9514151006205793e-07
sg9
g2
(g10
g11
F1.9063649524814604e-07
tp5570
Rp5571
sg14
Nsg15
(dp5572
g5568
F1.0
ssbF18.0
F4.194000000000001
F4.8169
tp5573
sS'eq0b_ge6j_600_900_mht_200_400'
p5574
(g2
(g3
g4
Ntp5575
Rp5576
(dp5577
g8
F32.94552230834961
sg9
g2
(g10
g11
F8.467096529083184
tp5578
Rp5579
sg14
Nsg15
(dp5580
g5576
F1.0
ssbg2
(g3
g4
Ntp5581
Rp5582
(dp5583
g8
F17.21024513244629
sg9
g2
(g10
g11
F3.0073147416867436
tp5584
Rp5585
sg14
Nsg15
(dp5586
g5582
F1.0
ssbg2
(g3
g4
Ntp5587
Rp5588
(dp5589
g8
F15.73527717590332
sg9
g2
(g10
g11
F4.548440653447035
tp5590
Rp5591
sg14
Nsg15
(dp5592
g5588
F1.0
ssbg2
(g3
g4
Ntp5593
Rp5594
(dp5595
g8
F3.482103636542888e-07
sg9
g2
(g10
g11
F3.2434728010993857e-07
tp5596
Rp5597
sg14
Nsg15
(dp5598
g5594
F1.0
ssbF27.0
F5.191600000000001
F5.816899999999997
tp5599
sS'eq1b_eq2j_1200_Inf_mht_900_950'
p5600
(g2
(g3
g4
Ntp5601
Rp5602
(dp5603
g8
F0.2172727882862091
sg9
g2
(g10
g11
F0.1794949569737546
tp5604
Rp5605
sg14
Nsg15
(dp5606
g5602
F1.0
ssbg2
(g3
g4
Ntp5607
Rp5608
(dp5609
g8
F0.03465691953897476
sg9
g2
(g10
g11
F0.03217483414819886
tp5610
Rp5611
sg14
Nsg15
(dp5612
g5608
F1.0
ssbg2
(g3
g4
Ntp5613
Rp5614
(dp5615
g8
F0.18261587619781494
sg9
g2
(g10
g11
F0.15208677871494186
tp5616
Rp5617
sg14
Nsg15
(dp5618
g5614
F1.0
ssbg2
(g3
g4
Ntp5619
Rp5620
(dp5621
g8
F3.686710312034158e-11
sg9
g2
(g10
g11
F4.218157197040125e-11
tp5622
Rp5623
sg14
Nsg15
(dp5624
g5620
F1.0
ssbF0.0
F0.0
F1.2904
tp5625
sS'eq2b_ge6j_900_1200_mht_700_750'
p5626
(g2
(g3
g4
Ntp5627
Rp5628
(dp5629
g8
F4.0831298520060955e-07
sg9
g2
(g10
g11
F3.9391728079197417e-07
tp5630
Rp5631
sg14
Nsg15
(dp5632
g5628
F1.0
ssbg2
(g3
g4
Ntp5633
Rp5634
(dp5635
g8
F2.00008059891843e-07
sg9
g2
(g10
g11
F1.39783397838037e-07
tp5636
Rp5637
sg14
Nsg15
(dp5638
g5634
F1.0
ssbg2
(g3
g4
Ntp5639
Rp5640
(dp5641
g8
F1.9998564937395713e-07
sg9
g2
(g10
g11
F1.4080311080320396e-07
tp5642
Rp5643
sg14
Nsg15
(dp5644
g5640
F1.0
ssbg2
(g3
g4
Ntp5645
Rp5646
(dp5647
g8
F8.319260835776277e-09
sg9
g2
(g10
g11
F6.541227042349704e-09
tp5648
Rp5649
sg14
Nsg15
(dp5650
g5646
F1.0
ssbF0.0
F0.0
F1.2904
tp5651
sS'eq0b_eq3j_600_900_mht_700_750'
p5652
(g2
(g3
g4
Ntp5653
Rp5654
(dp5655
g8
F4.0000008993956726e-07
sg9
g2
(g10
g11
F2.104515167253442e-07
tp5656
Rp5657
sg14
Nsg15
(dp5658
g5654
F1.0
ssbg2
(g3
g4
Ntp5659
Rp5660
(dp5661
g8
F2.0000008760234778e-07
sg9
g2
(g10
g11
F1.0051658346461574e-07
tp5662
Rp5663
sg14
Nsg15
(dp5664
g5660
F1.0
ssbg2
(g3
g4
Ntp5665
Rp5666
(dp5667
g8
F1.9999998812636477e-07
sg9
g2
(g10
g11
F7.156744512671795e-08
tp5668
Rp5669
sg14
Nsg15
(dp5670
g5666
F1.0
ssbg2
(g3
g4
Ntp5671
Rp5672
(dp5673
g8
F1.9914472508887648e-16
sg9
g2
(g10
g11
F1.3619730083902047e-16
tp5674
Rp5675
sg14
Nsg15
(dp5676
g5672
F1.0
ssbF0.0
F0.0
F1.2904
tp5677
sS'eq0b_ge6j_900_1200_mht_700_750'
p5678
(g2
(g3
g4
Ntp5679
Rp5680
(dp5681
g8
F4.0832503600540804e-07
sg9
g2
(g10
g11
F3.792005525536384e-07
tp5682
Rp5683
sg14
Nsg15
(dp5684
g5680
F1.0
ssbg2
(g3
g4
Ntp5685
Rp5686
(dp5687
g8
F2.0000186395918718e-07
sg9
g2
(g10
g11
F1.3608679848260478e-07
tp5688
Rp5689
sg14
Nsg15
(dp5690
g5686
F1.0
ssbg2
(g3
g4
Ntp5691
Rp5692
(dp5693
g8
F2.0000092604277597e-07
sg9
g2
(g10
g11
F1.34090810284197e-07
tp5694
Rp5695
sg14
Nsg15
(dp5696
g5692
F1.0
ssbg2
(g3
g4
Ntp5697
Rp5698
(dp5699
g8
F8.322222022627557e-09
sg9
g2
(g10
g11
F6.543491132178394e-09
tp5700
Rp5701
sg14
Nsg15
(dp5702
g5698
F1.0
ssbF0.0
F0.0
F1.2904
tp5703
sS'eq1b_eq3j_600_900_mht_400_600'
p5704
(g2
(g3
g4
Ntp5705
Rp5706
(dp5707
g8
F9.500011444091797
sg9
g2
(g10
g11
F1.8415888751186942
tp5708
Rp5709
sg14
Nsg15
(dp5710
g5706
F1.0
ssbg2
(g3
g4
Ntp5711
Rp5712
(dp5713
g8
F3.1370325088500977
sg9
g2
(g10
g11
F0.6313186136102092
tp5714
Rp5715
sg14
Nsg15
(dp5716
g5712
F1.0
ssbg2
(g3
g4
Ntp5717
Rp5718
(dp5719
g8
F6.362978458404541
sg9
g2
(g10
g11
F0.9953542344282882
tp5720
Rp5721
sg14
Nsg15
(dp5722
g5718
F1.0
ssbg2
(g3
g4
Ntp5723
Rp5724
(dp5725
g8
F7.645033051062455e-09
sg9
g2
(g10
g11
F5.839038468319105e-09
tp5726
Rp5727
sg14
Nsg15
(dp5728
g5724
F1.0
ssbF14.0
F3.6994000000000007
F4.315200000000001
tp5729
sS'eq1b_eq3j_1200_Inf_mht_200_400'
p5730
(g2
(g3
g4
Ntp5731
Rp5732
(dp5733
g8
F0.38648083806037903
sg9
g2
(g10
g11
F0.10298687904079033
tp5734
Rp5735
sg14
Nsg15
(dp5736
g5732
F1.0
ssbg2
(g3
g4
Ntp5737
Rp5738
(dp5739
g8
F0.14695201814174652
sg9
g2
(g10
g11
F0.04074448108160557
tp5740
Rp5741
sg14
Nsg15
(dp5742
g5738
F1.0
ssbg2
(g3
g4
Ntp5743
Rp5744
(dp5745
g8
F0.2395288199186325
sg9
g2
(g10
g11
F0.07495016588163438
tp5746
Rp5747
sg14
Nsg15
(dp5748
g5744
F1.0
ssbg2
(g3
g4
Ntp5749
Rp5750
(dp5751
g8
F1.0456220611576583e-10
sg9
g2
(g10
g11
F9.39380904780762e-11
tp5752
Rp5753
sg14
Nsg15
(dp5754
g5750
F1.0
ssbF0.0
F0.0
F1.2904
tp5755
sS'eq0b_eq5j_400_600_mht_500_550'
p5756
(g2
(g3
g4
Ntp5757
Rp5758
(dp5759
g8
F3.999999194093107e-07
sg9
g2
(g10
g11
F2.374654607524072e-07
tp5760
Rp5761
sg14
Nsg15
(dp5762
g5758
F1.0
ssbg2
(g3
g4
Ntp5763
Rp5764
(dp5765
g8
F1.9999995970465534e-07
sg9
g2
(g10
g11
F8.214112328076587e-08
tp5766
Rp5767
sg14
Nsg15
(dp5768
g5764
F1.0
ssbg2
(g3
g4
Ntp5769
Rp5770
(dp5771
g8
F1.9999995970465534e-07
sg9
g2
(g10
g11
F8.644716791402718e-08
tp5772
Rp5773
sg14
Nsg15
(dp5774
g5770
F1.0
ssbg2
(g3
g4
Ntp5775
Rp5776
(dp5777
g8
F1.0507231952452782e-15
sg9
g2
(g10
g11
F6.520832006988687e-16
tp5778
Rp5779
sg14
Nsg15
(dp5780
g5776
F1.0
ssbF0.0
F0.0
F1.2904
tp5781
sS'eq1b_eq5j_1200_Inf_mht_900_950'
p5782
(g2
(g3
g4
Ntp5783
Rp5784
(dp5785
g8
F0.19561168551445007
sg9
g2
(g10
g11
F0.13216560344741418
tp5786
Rp5787
sg14
Nsg15
(dp5788
g5784
F1.0
ssbg2
(g3
g4
Ntp5789
Rp5790
(dp5791
g8
F0.028142960742115974
sg9
g2
(g10
g11
F0.020018911584707567
tp5792
Rp5793
sg14
Nsg15
(dp5794
g5790
F1.0
ssbg2
(g3
g4
Ntp5795
Rp5796
(dp5797
g8
F0.16746872663497925
sg9
g2
(g10
g11
F0.11580359095373577
tp5798
Rp5799
sg14
Nsg15
(dp5800
g5796
F1.0
ssbg2
(g3
g4
Ntp5801
Rp5802
(dp5803
g8
F4.407896617153462e-11
sg9
g2
(g10
g11
F3.882912821287144e-11
tp5804
Rp5805
sg14
Nsg15
(dp5806
g5802
F1.0
ssbF0.0
F0.0
F1.2904
tp5807
sS'eq1b_eq2j_600_900_mht_600_700'
p5808
(g2
(g3
g4
Ntp5809
Rp5810
(dp5811
g8
F3.1930859088897705
sg9
g2
(g10
g11
F1.3912775527405614
tp5812
Rp5813
sg14
Nsg15
(dp5814
g5810
F1.0
ssbg2
(g3
g4
Ntp5815
Rp5816
(dp5817
g8
F0.8441058397293091
sg9
g2
(g10
g11
F0.2915584115807845
tp5818
Rp5819
sg14
Nsg15
(dp5820
g5816
F1.0
ssbg2
(g3
g4
Ntp5821
Rp5822
(dp5823
g8
F2.3271851539611816
sg9
g2
(g10
g11
F0.8234955218899214
tp5824
Rp5825
sg14
Nsg15
(dp5826
g5822
F1.0
ssbg2
(g3
g4
Ntp5827
Rp5828
(dp5829
g8
F0.021794971078634262
sg9
g2
(g10
g11
F0.019880143569155878
tp5830
Rp5831
sg14
Nsg15
(dp5832
g5828
F1.0
ssbF4.0
F1.6641
F2.7763999999999998
tp5833
sS'eq0b_eq1j_600_900_mht_200_Inf'
p5834
(g2
(g3
g4
Ntp5835
Rp5836
(dp5837
g8
F85.44499969482422
sg9
g2
(g10
g11
F24.358871266440076
tp5838
Rp5839
sg14
Nsg15
(dp5840
g5836
F1.0
ssbg2
(g3
g4
Ntp5841
Rp5842
(dp5843
g8
F17.06130027770996
sg9
g2
(g10
g11
F5.496735606288468
tp5844
Rp5845
sg14
Nsg15
(dp5846
g5842
F1.0
ssbg2
(g3
g4
Ntp5847
Rp5848
(dp5849
g8
F68.38369750976562
sg9
g2
(g10
g11
F14.379610843406455
tp5850
Rp5851
sg14
Nsg15
(dp5852
g5848
F1.0
ssbg2
(g3
g4
Ntp5853
Rp5854
(dp5855
g8
F0.0
sg9
g2
(g10
g11
F0.0
tp5856
Rp5857
sg14
Nsg15
(dp5858
g5854
F1.0
ssbF112.0
F10.583005244258363
F10.583005244258363
tp5859
sS'eq1b_eq5j_600_900_mht_700_750'
p5860
(g2
(g3
g4
Ntp5861
Rp5862
(dp5863
g8
F3.9999795831136e-07
sg9
g2
(g10
g11
F3.684585300269374e-07
tp5864
Rp5865
sg14
Nsg15
(dp5866
g5862
F1.0
ssbg2
(g3
g4
Ntp5867
Rp5868
(dp5869
g8
F1.9999932021619315e-07
sg9
g2
(g10
g11
F1.2745165596489786e-07
tp5870
Rp5871
sg14
Nsg15
(dp5872
g5868
F1.0
ssbg2
(g3
g4
Ntp5873
Rp5874
(dp5875
g8
F1.999986238843121e-07
sg9
g2
(g10
g11
F1.3344810361757555e-07
tp5876
Rp5877
sg14
Nsg15
(dp5878
g5874
F1.0
ssbg2
(g3
g4
Ntp5879
Rp5880
(dp5881
g8
F3.489878710130368e-16
sg9
g2
(g10
g11
F2.966352860228425e-16
tp5882
Rp5883
sg14
Nsg15
(dp5884
g5880
F1.0
ssbF0.0
F0.0
F1.2904
tp5885
sS'eq1b_eq1j_200_400_mht_200_Inf'
p5886
(g2
(g3
g4
Ntp5887
Rp5888
(dp5889
g8
F1069.3541259765625
sg9
g2
(g10
g11
F116.85894809555664
tp5890
Rp5891
sg14
Nsg15
(dp5892
g5888
F1.0
ssbg2
(g3
g4
Ntp5893
Rp5894
(dp5895
g8
F354.430908203125
sg9
g2
(g10
g11
F39.32858523875889
tp5896
Rp5897
sg14
Nsg15
(dp5898
g5894
F1.0
ssbg2
(g3
g4
Ntp5899
Rp5900
(dp5901
g8
F714.9232177734375
sg9
g2
(g10
g11
F64.27208837667652
tp5902
Rp5903
sg14
Nsg15
(dp5904
g5900
F1.0
ssbg2
(g3
g4
Ntp5905
Rp5906
(dp5907
g8
F0.0
sg9
g2
(g10
g11
F0.0
tp5908
Rp5909
sg14
Nsg15
(dp5910
g5906
F1.0
ssbF1457.0
F38.17066936798463
F38.17066936798463
tp5911
sS'eq1b_ge6j_900_1200_mht_600_700'
p5912
(g2
(g3
g4
Ntp5913
Rp5914
(dp5915
g8
F0.21416866779327393
sg9
g2
(g10
g11
F0.1601645788492657
tp5916
Rp5917
sg14
Nsg15
(dp5918
g5914
F1.0
ssbg2
(g3
g4
Ntp5919
Rp5920
(dp5921
g8
F0.07040625065565109
sg9
g2
(g10
g11
F0.026792131121001202
tp5922
Rp5923
sg14
Nsg15
(dp5924
g5920
F1.0
ssbg2
(g3
g4
Ntp5925
Rp5926
(dp5927
g8
F0.13514061272144318
sg9
g2
(g10
g11
F0.1535236230373528
tp5928
Rp5929
sg14
Nsg15
(dp5930
g5926
F1.0
ssbg2
(g3
g4
Ntp5931
Rp5932
(dp5933
g8
F0.008621797896921635
sg9
g2
(g10
g11
F0.009832419845850426
tp5934
Rp5935
sg14
Nsg15
(dp5936
g5932
F1.0
ssbF0.0
F0.0
F1.2904
tp5937
sS'eq0b_eq2j_900_1200_mht_600_900'
p5938
(g2
(g3
g4
Ntp5939
Rp5940
(dp5941
g8
F9.905656814575195
sg9
g2
(g10
g11
F4.708620647114981
tp5942
Rp5943
sg14
Nsg15
(dp5944
g5940
F1.0
ssbg2
(g3
g4
Ntp5945
Rp5946
(dp5947
g8
F2.2531607151031494
sg9
g2
(g10
g11
F1.017200081977436
tp5948
Rp5949
sg14
Nsg15
(dp5950
g5946
F1.0
ssbg2
(g3
g4
Ntp5951
Rp5952
(dp5953
g8
F7.652496337890625
sg9
g2
(g10
g11
F2.8965166547215127
tp5954
Rp5955
sg14
Nsg15
(dp5956
g5952
F1.0
ssbg2
(g3
g4
Ntp5957
Rp5958
(dp5959
g8
F8.89907370016374e-10
sg9
g2
(g10
g11
F6.425489182279021e-10
tp5960
Rp5961
sg14
Nsg15
(dp5962
g5958
F1.0
ssbF11.0
F3.1936
F3.8194
tp5963
sS'eq1b_eq3j_400_600_mht_400_500'
p5964
(g2
(g3
g4
Ntp5965
Rp5966
(dp5967
g8
F27.663732528686523
sg9
g2
(g10
g11
F5.050368614718262
tp5968
Rp5969
sg14
Nsg15
(dp5970
g5966
F1.0
ssbg2
(g3
g4
Ntp5971
Rp5972
(dp5973
g8
F12.887186050415039
sg9
g2
(g10
g11
F2.108156404371594
tp5974
Rp5975
sg14
Nsg15
(dp5976
g5972
F1.0
ssbg2
(g3
g4
Ntp5977
Rp5978
(dp5979
g8
F14.608135223388672
sg9
g2
(g10
g11
F2.2028985436029966
tp5980
Rp5981
sg14
Nsg15
(dp5982
g5978
F1.0
ssbg2
(g3
g4
Ntp5983
Rp5984
(dp5985
g8
F0.1684114634990692
sg9
g2
(g10
g11
F0.12838333649204262
tp5986
Rp5987
sg14
Nsg15
(dp5988
g5984
F1.0
ssbF41.0
F6.4031242374328485
F6.4031242374328485
tp5989
sS'eq1b_ge2a_600_900_mht_600_700'
p5990
(g2
(g3
g4
Ntp5991
Rp5992
(dp5993
g8
F2.040289878845215
sg9
g2
(g10
g11
F0.5699374703358022
tp5994
Rp5995
sg14
Nsg15
(dp5996
g5992
F1.0
ssbg2
(g3
g4
Ntp5997
Rp5998
(dp5999
g8
F0.6135565042495728
sg9
g2
(g10
g11
F0.19157920030295164
tp6000
Rp6001
sg14
Nsg15
(dp6002
g5998
F1.0
ssbg2
(g3
g4
Ntp6003
Rp6004
(dp6005
g8
F1.4267336130142212
sg9
g2
(g10
g11
F0.40284870940854345
tp6006
Rp6007
sg14
Nsg15
(dp6008
g6004
F1.0
ssbg2
(g3
g4
Ntp6009
Rp6010
(dp6011
g8
F3.3331248872059405e-10
sg9
g2
(g10
g11
F4.612143136716229e-10
tp6012
Rp6013
sg14
Nsg15
(dp6014
g6010
F1.0
ssbF1.0
F0.6321
F1.7505000000000002
tp6015
sS'eq1b_eq5j_400_600_mht_500_550'
p6016
(g2
(g3
g4
Ntp6017
Rp6018
(dp6019
g8
F3.999995499270881e-07
sg9
g2
(g10
g11
F3.2248892953292725e-07
tp6020
Rp6021
sg14
Nsg15
(dp6022
g6018
F1.0
ssbg2
(g3
g4
Ntp6023
Rp6024
(dp6025
g8
F2.0000000233721948e-07
sg9
g2
(g10
g11
F9.757117806506859e-08
tp6026
Rp6027
sg14
Nsg15
(dp6028
g6024
F1.0
ssbg2
(g3
g4
Ntp6029
Rp6030
(dp6031
g8
F1.999995475898686e-07
sg9
g2
(g10
g11
F1.3066824959818535e-07
tp6032
Rp6033
sg14
Nsg15
(dp6034
g6030
F1.0
ssbg2
(g3
g4
Ntp6035
Rp6036
(dp6037
g8
F1.0506118104127143e-15
sg9
g2
(g10
g11
F6.519350472141643e-16
tp6038
Rp6039
sg14
Nsg15
(dp6040
g6036
F1.0
ssbF0.0
F0.0
F1.2904
tp6041
sS'eq1b_ge2a_400_600_mht_400_500'
p6042
(g2
(g3
g4
Ntp6043
Rp6044
(dp6045
g8
F33.756168365478516
sg9
g2
(g10
g11
F4.148000212357607
tp6046
Rp6047
sg14
Nsg15
(dp6048
g6044
F1.0
ssbg2
(g3
g4
Ntp6049
Rp6050
(dp6051
g8
F12.634847640991211
sg9
g2
(g10
g11
F1.6729125837163004
tp6052
Rp6053
sg14
Nsg15
(dp6054
g6050
F1.0
ssbg2
(g3
g4
Ntp6055
Rp6056
(dp6057
g8
F21.121320724487305
sg9
g2
(g10
g11
F2.4965253716464435
tp6058
Rp6059
sg14
Nsg15
(dp6060
g6056
F1.0
ssbg2
(g3
g4
Ntp6061
Rp6062
(dp6063
g8
F1.8182705119329512e-08
sg9
g2
(g10
g11
F1.213132341719307e-08
tp6064
Rp6065
sg14
Nsg15
(dp6066
g6062
F1.0
ssbF39.0
F6.244997998398398
F6.244997998398398
tp6067
sS'eq3b_eq5j_600_900_mht_600_700'
p6068
(g2
(g3
g4
Ntp6069
Rp6070
(dp6071
g8
F0.013704626820981503
sg9
g2
(g10
g11
F0.004370991390314974
tp6072
Rp6073
sg14
Nsg15
(dp6074
g6070
F1.0
ssbg2
(g3
g4
Ntp6075
Rp6076
(dp6077
g8
F0.003613112960010767
sg9
g2
(g10
g11
F0.0014843250660551955
tp6078
Rp6079
sg14
Nsg15
(dp6080
g6076
F1.0
ssbg2
(g3
g4
Ntp6081
Rp6082
(dp6083
g8
F0.010091513395309448
sg9
g2
(g10
g11
F0.0031451113644076784
tp6084
Rp6085
sg14
Nsg15
(dp6086
g6082
F1.0
ssbg2
(g3
g4
Ntp6087
Rp6088
(dp6089
g8
F2.3650859048984785e-11
sg9
g2
(g10
g11
F2.2993341574229003e-11
tp6090
Rp6091
sg14
Nsg15
(dp6092
g6088
F1.0
ssbF0.0
F0.0
F1.2904
tp6093
sS'eq1b_eq3j_600_900_mht_600_700'
p6094
(g2
(g3
g4
Ntp6095
Rp6096
(dp6097
g8
F3.96771502494812
sg9
g2
(g10
g11
F1.3041732121669976
tp6098
Rp6099
sg14
Nsg15
(dp6100
g6096
F1.0
ssbg2
(g3
g4
Ntp6101
Rp6102
(dp6103
g8
F0.9569324851036072
sg9
g2
(g10
g11
F0.2522141918252112
tp6104
Rp6105
sg14
Nsg15
(dp6106
g6102
F1.0
ssbg2
(g3
g4
Ntp6107
Rp6108
(dp6109
g8
F3.010782480239868
sg9
g2
(g10
g11
F0.7408703747626353
tp6110
Rp6111
sg14
Nsg15
(dp6112
g6108
F1.0
ssbg2
(g3
g4
Ntp6113
Rp6114
(dp6115
g8
F3.1976505887598705e-09
sg9
g2
(g10
g11
F2.160715947095544e-09
tp6116
Rp6117
sg14
Nsg15
(dp6118
g6114
F1.0
ssbF5.0
F2.2495
F2.8064
tp6119
sS'eq1b_eq3j_1200_Inf_mht_400_600'
p6120
(g2
(g3
g4
Ntp6121
Rp6122
(dp6123
g8
F0.865011990070343
sg9
g2
(g10
g11
F0.23040146702259634
tp6124
Rp6125
sg14
Nsg15
(dp6126
g6122
F1.0
ssbg2
(g3
g4
Ntp6127
Rp6128
(dp6129
g8
F0.29175835847854614
sg9
g2
(g10
g11
F0.09284695573354967
tp6130
Rp6131
sg14
Nsg15
(dp6132
g6128
F1.0
ssbg2
(g3
g4
Ntp6133
Rp6134
(dp6135
g8
F0.5732536315917969
sg9
g2
(g10
g11
F0.14462499928783526
tp6136
Rp6137
sg14
Nsg15
(dp6138
g6134
F1.0
ssbg2
(g3
g4
Ntp6139
Rp6140
(dp6141
g8
F2.328513493132789e-10
sg9
g2
(g10
g11
F2.092047877034929e-10
tp6142
Rp6143
sg14
Nsg15
(dp6144
g6140
F1.0
ssbF2.0
F1.2642
F2.2504
tp6145
sS'eq2b_eq4j_1200_Inf_mht_900_950'
p6146
(g2
(g3
g4
Ntp6147
Rp6148
(dp6149
g8
F0.04608195647597313
sg9
g2
(g10
g11
F0.02947337580081193
tp6150
Rp6151
sg14
Nsg15
(dp6152
g6148
F1.0
ssbg2
(g3
g4
Ntp6153
Rp6154
(dp6155
g8
F0.006401467602699995
sg9
g2
(g10
g11
F0.004092471373280748
tp6156
Rp6157
sg14
Nsg15
(dp6158
g6154
F1.0
ssbg2
(g3
g4
Ntp6159
Rp6160
(dp6161
g8
F0.03968048840761185
sg9
g2
(g10
g11
F0.02617531369521379
tp6162
Rp6163
sg14
Nsg15
(dp6164
g6160
F1.0
ssbg2
(g3
g4
Ntp6165
Rp6166
(dp6167
g8
F6.602163260538418e-12
sg9
g2
(g10
g11
F7.361294893757916e-12
tp6168
Rp6169
sg14
Nsg15
(dp6170
g6166
F1.0
ssbF0.0
F0.0
F1.2904
tp6171
sS'eq0b_eq4j_900_1200_mht_600_900'
p6172
(g2
(g3
g4
Ntp6173
Rp6174
(dp6175
g8
F9.013656616210938
sg9
g2
(g10
g11
F2.929092647943109
tp6176
Rp6177
sg14
Nsg15
(dp6178
g6174
F1.0
ssbg2
(g3
g4
Ntp6179
Rp6180
(dp6181
g8
F1.7814788818359375
sg9
g2
(g10
g11
F0.6100998856108426
tp6182
Rp6183
sg14
Nsg15
(dp6184
g6180
F1.0
ssbg2
(g3
g4
Ntp6185
Rp6186
(dp6187
g8
F7.232177257537842
sg9
g2
(g10
g11
F1.826037093956708
tp6188
Rp6189
sg14
Nsg15
(dp6190
g6186
F1.0
ssbg2
(g3
g4
Ntp6191
Rp6192
(dp6193
g8
F2.173305757580124e-09
sg9
g2
(g10
g11
F1.63832131483067e-09
tp6194
Rp6195
sg14
Nsg15
(dp6196
g6192
F1.0
ssbF9.0
F2.6658
F3.7904999999999998
tp6197
sS'eq0b_eq2j_600_900_mht_400_600'
p6198
(g2
(g3
g4
Ntp6199
Rp6200
(dp6201
g8
F33.093292236328125
sg9
g2
(g10
g11
F10.071245229302582
tp6202
Rp6203
sg14
Nsg15
(dp6204
g6200
F1.0
ssbg2
(g3
g4
Ntp6205
Rp6206
(dp6207
g8
F9.53890609741211
sg9
g2
(g10
g11
F2.861745856612595
tp6208
Rp6209
sg14
Nsg15
(dp6210
g6206
F1.0
ssbg2
(g3
g4
Ntp6211
Rp6212
(dp6213
g8
F23.328577041625977
sg9
g2
(g10
g11
F6.015086845601801
tp6214
Rp6215
sg14
Nsg15
(dp6216
g6212
F1.0
ssbg2
(g3
g4
Ntp6217
Rp6218
(dp6219
g8
F0.2258063405752182
sg9
g2
(g10
g11
F0.224890127111088
tp6220
Rp6221
sg14
Nsg15
(dp6222
g6218
F1.0
ssbF31.0
F5.5677643628300215
F5.5677643628300215
tp6223
sS'eq3b_ge6j_400_600_mht_200_Inf'
p6224
(g2
(g3
g4
Ntp6225
Rp6226
(dp6227
g8
F1.2620000839233398
sg9
g2
(g10
g11
F0.28098830870067326
tp6228
Rp6229
sg14
Nsg15
(dp6230
g6226
F1.0
ssbg2
(g3
g4
Ntp6231
Rp6232
(dp6233
g8
F1.11489999294281
sg9
g2
(g10
g11
F0.2329664105631125
tp6234
Rp6235
sg14
Nsg15
(dp6236
g6232
F1.0
ssbg2
(g3
g4
Ntp6237
Rp6238
(dp6239
g8
F0.07719999551773071
sg9
g2
(g10
g11
F0.011742865019339431
tp6240
Rp6241
sg14
Nsg15
(dp6242
g6238
F1.0
ssbg2
(g3
g4
Ntp6243
Rp6244
(dp6245
g8
F0.06989999860525131
sg9
g2
(g10
g11
F0.07897038685876338
tp6246
Rp6247
sg14
Nsg15
(dp6248
g6244
F1.0
ssbF0.0
F0.0
F1.2904
tp6249
sS'eq1b_eq2j_400_600_mht_500_550'
p6250
(g2
(g3
g4
Ntp6251
Rp6252
(dp6253
g8
F4.0137348378266324e-07
sg9
g2
(g10
g11
F3.378483773705363e-07
tp6254
Rp6255
sg14
Nsg15
(dp6256
g6252
F1.0
ssbg2
(g3
g4
Ntp6257
Rp6258
(dp6259
g8
F2.0000015865662135e-07
sg9
g2
(g10
g11
F1.258539548765075e-07
tp6260
Rp6261
sg14
Nsg15
(dp6262
g6258
F1.0
ssbg2
(g3
g4
Ntp6263
Rp6264
(dp6265
g8
F2.0000007339149306e-07
sg9
g2
(g10
g11
F1.1442934965357846e-07
tp6266
Rp6267
sg14
Nsg15
(dp6268
g6264
F1.0
ssbg2
(g3
g4
Ntp6269
Rp6270
(dp6271
g8
F1.3732566195301388e-09
sg9
g2
(g10
g11
F8.118641223779929e-10
tp6272
Rp6273
sg14
Nsg15
(dp6274
g6270
F1.0
ssbF0.0
F0.0
F1.2904
tp6275
sS'eq0b_eq5j_1200_Inf_mht_200_400'
p6276
(g2
(g3
g4
Ntp6277
Rp6278
(dp6279
g8
F2.2808048725128174
sg9
g2
(g10
g11
F0.6224513771033928
tp6280
Rp6281
sg14
Nsg15
(dp6282
g6278
F1.0
ssbg2
(g3
g4
Ntp6283
Rp6284
(dp6285
g8
F0.9211238622665405
sg9
g2
(g10
g11
F0.22380786424580035
tp6286
Rp6287
sg14
Nsg15
(dp6288
g6284
F1.0
ssbg2
(g3
g4
Ntp6289
Rp6290
(dp6291
g8
F1.3596810102462769
sg9
g2
(g10
g11
F0.5140460629139798
tp6292
Rp6293
sg14
Nsg15
(dp6294
g6290
F1.0
ssbg2
(g3
g4
Ntp6295
Rp6296
(dp6297
g8
F5.135680214429783e-10
sg9
g2
(g10
g11
F4.5250671121618e-10
tp6298
Rp6299
sg14
Nsg15
(dp6300
g6296
F1.0
ssbF2.0
F1.2642
F2.2504
tp6301
sS'eq1b_eq4j_400_600_mht_200_400'
p6302
(g2
(g3
g4
Ntp6303
Rp6304
(dp6305
g8
F190.57017517089844
sg9
g2
(g10
g11
F23.8411745004834
tp6306
Rp6307
sg14
Nsg15
(dp6308
g6304
F1.0
ssbg2
(g3
g4
Ntp6309
Rp6310
(dp6311
g8
F130.9507293701172
sg9
g2
(g10
g11
F16.401868239267174
tp6312
Rp6313
sg14
Nsg15
(dp6314
g6310
F1.0
ssbg2
(g3
g4
Ntp6315
Rp6316
(dp6317
g8
F48.45983123779297
sg9
g2
(g10
g11
F4.14171646876234
tp6318
Rp6319
sg14
Nsg15
(dp6320
g6316
F1.0
ssbg2
(g3
g4
Ntp6321
Rp6322
(dp6323
g8
F11.15963363647461
sg9
g2
(g10
g11
F8.842352231910018
tp6324
Rp6325
sg14
Nsg15
(dp6326
g6322
F1.0
ssbF175.0
F13.228756555322953
F13.228756555322953
tp6327
sS'eq1b_eq4j_400_600_mht_400_500'
p6328
(g2
(g3
g4
Ntp6329
Rp6330
(dp6331
g8
F14.471002578735352
sg9
g2
(g10
g11
F2.1123223766162935
tp6332
Rp6333
sg14
Nsg15
(dp6334
g6330
F1.0
ssbg2
(g3
g4
Ntp6335
Rp6336
(dp6337
g8
F7.567066192626953
sg9
g2
(g10
g11
F1.0943684513368859
tp6338
Rp6339
sg14
Nsg15
(dp6340
g6336
F1.0
ssbg2
(g3
g4
Ntp6341
Rp6342
(dp6343
g8
F6.059169769287109
sg9
g2
(g10
g11
F1.1697709301101067
tp6344
Rp6345
sg14
Nsg15
(dp6346
g6342
F1.0
ssbg2
(g3
g4
Ntp6347
Rp6348
(dp6349
g8
F0.8447667360305786
sg9
g2
(g10
g11
F0.5914353921581198
tp6350
Rp6351
sg14
Nsg15
(dp6352
g6348
F1.0
ssbF18.0
F4.194000000000001
F4.8169
tp6353
sS'eq1b_eq4j_900_1200_mht_900_950'
p6354
(g2
(g3
g4
Ntp6355
Rp6356
(dp6357
g8
F0.22108933329582214
sg9
g2
(g10
g11
F0.11720316972872816
tp6358
Rp6359
sg14
Nsg15
(dp6360
g6356
F1.0
ssbg2
(g3
g4
Ntp6361
Rp6362
(dp6363
g8
F0.030810091644525528
sg9
g2
(g10
g11
F0.014185770151470753
tp6364
Rp6365
sg14
Nsg15
(dp6366
g6362
F1.0
ssbg2
(g3
g4
Ntp6367
Rp6368
(dp6369
g8
F0.19027924537658691
sg9
g2
(g10
g11
F0.08298891054248378
tp6370
Rp6371
sg14
Nsg15
(dp6372
g6368
F1.0
ssbg2
(g3
g4
Ntp6373
Rp6374
(dp6375
g8
F5.388130913663858e-11
sg9
g2
(g10
g11
F4.547265244019741e-11
tp6376
Rp6377
sg14
Nsg15
(dp6378
g6374
F1.0
ssbF0.0
F0.0
F1.2904
tp6379
sS'eq2b_eq5j_600_900_mht_700_750'
p6380
(g2
(g3
g4
Ntp6381
Rp6382
(dp6383
g8
F4.000056321729062e-07
sg9
g2
(g10
g11
F3.8898965952976625e-07
tp6384
Rp6385
sg14
Nsg15
(dp6386
g6382
F1.0
ssbg2
(g3
g4
Ntp6387
Rp6388
(dp6389
g8
F2.0000396716568503e-07
sg9
g2
(g10
g11
F1.3523178199413084e-07
tp6390
Rp6391
sg14
Nsg15
(dp6392
g6388
F1.0
ssbg2
(g3
g4
Ntp6393
Rp6394
(dp6395
g8
F2.0000166500722116e-07
sg9
g2
(g10
g11
F1.3989736513178448e-07
tp6396
Rp6397
sg14
Nsg15
(dp6398
g6394
F1.0
ssbg2
(g3
g4
Ntp6399
Rp6400
(dp6401
g8
F3.490079086361953e-16
sg9
g2
(g10
g11
F2.9665843080664697e-16
tp6402
Rp6403
sg14
Nsg15
(dp6404
g6400
F1.0
ssbF0.0
F0.0
F1.2904
tp6405
sS'eq0b_eq2j_900_1200_mht_400_600'
p6406
(g2
(g3
g4
Ntp6407
Rp6408
(dp6409
g8
F16.483257293701172
sg9
g2
(g10
g11
F4.6355153898663195
tp6410
Rp6411
sg14
Nsg15
(dp6412
g6408
F1.0
ssbg2
(g3
g4
Ntp6413
Rp6414
(dp6415
g8
F4.662955284118652
sg9
g2
(g10
g11
F1.3226343809912207
tp6416
Rp6417
sg14
Nsg15
(dp6418
g6414
F1.0
ssbg2
(g3
g4
Ntp6419
Rp6420
(dp6421
g8
F11.820301055908203
sg9
g2
(g10
g11
F2.524331682347802
tp6422
Rp6423
sg14
Nsg15
(dp6424
g6420
F1.0
ssbg2
(g3
g4
Ntp6425
Rp6426
(dp6427
g8
F1.4813423820925209e-09
sg9
g2
(g10
g11
F1.0696048551883322e-09
tp6428
Rp6429
sg14
Nsg15
(dp6430
g6426
F1.0
ssbF18.0
F4.194000000000001
F4.8169
tp6431
sS'eq0b_eq5j_600_900_mht_700_750'
p6432
(g2
(g3
g4
Ntp6433
Rp6434
(dp6435
g8
F4.000001467829861e-07
sg9
g2
(g10
g11
F3.018011551792557e-07
tp6436
Rp6437
sg14
Nsg15
(dp6438
g6434
F1.0
ssbg2
(g3
g4
Ntp6439
Rp6440
(dp6441
g8
F2.0000015865662135e-07
sg9
g2
(g10
g11
F1.1327766195750614e-07
tp6442
Rp6443
sg14
Nsg15
(dp6444
g6440
F1.0
ssbg2
(g3
g4
Ntp6445
Rp6446
(dp6447
g8
F1.9999995970465534e-07
sg9
g2
(g10
g11
F1.0257462149899086e-07
tp6448
Rp6449
sg14
Nsg15
(dp6450
g6446
F1.0
ssbg2
(g3
g4
Ntp6451
Rp6452
(dp6453
g8
F3.490219905589434e-16
sg9
g2
(g10
g11
F2.9666718610809877e-16
tp6454
Rp6455
sg14
Nsg15
(dp6456
g6452
F1.0
ssbF0.0
F0.0
F1.2904
tp6457
sS'eq0b_ge6j_1200_Inf_mht_400_600'
p6458
(g2
(g3
g4
Ntp6459
Rp6460
(dp6461
g8
F2.1409411430358887
sg9
g2
(g10
g11
F0.48770440535801524
tp6462
Rp6463
sg14
Nsg15
(dp6464
g6460
F1.0
ssbg2
(g3
g4
Ntp6465
Rp6466
(dp6467
g8
F0.6838963031768799
sg9
g2
(g10
g11
F0.19572378571080407
tp6468
Rp6469
sg14
Nsg15
(dp6470
g6466
F1.0
ssbg2
(g3
g4
Ntp6471
Rp6472
(dp6473
g8
F1.424557089805603
sg9
g2
(g10
g11
F0.34560687605675605
tp6474
Rp6475
sg14
Nsg15
(dp6476
g6472
F1.0
ssbg2
(g3
g4
Ntp6477
Rp6478
(dp6479
g8
F0.03248760849237442
sg9
g2
(g10
g11
F0.03063197552783578
tp6480
Rp6481
sg14
Nsg15
(dp6482
g6478
F1.0
ssbF2.0
F1.2642
F2.2504
tp6483
sS'eq3b_eq4j_600_900_mht_200_400'
p6484
(g2
(g3
g4
Ntp6485
Rp6486
(dp6487
g8
F0.31437310576438904
sg9
g2
(g10
g11
F0.04225608760383318
tp6488
Rp6489
sg14
Nsg15
(dp6490
g6486
F1.0
ssbg2
(g3
g4
Ntp6491
Rp6492
(dp6493
g8
F0.21515901386737823
sg9
g2
(g10
g11
F0.03492787545345309
tp6494
Rp6495
sg14
Nsg15
(dp6496
g6492
F1.0
ssbg2
(g3
g4
Ntp6497
Rp6498
(dp6499
g8
F0.099214106798172
sg9
g2
(g10
g11
F0.01199758078521965
tp6500
Rp6501
sg14
Nsg15
(dp6502
g6498
F1.0
ssbg2
(g3
g4
Ntp6503
Rp6504
(dp6505
g8
F3.676519644280063e-10
sg9
g2
(g10
g11
F3.0108962557737794e-10
tp6506
Rp6507
sg14
Nsg15
(dp6508
g6504
F1.0
ssbF0.0
F0.0
F1.2904
tp6509
sS'eq2b_eq4j_400_600_mht_500_550'
p6510
(g2
(g3
g4
Ntp6511
Rp6512
(dp6513
g8
F4.1237171899410896e-07
sg9
g2
(g10
g11
F3.289457569732874e-07
tp6514
Rp6515
sg14
Nsg15
(dp6516
g6512
F1.0
ssbg2
(g3
g4
Ntp6517
Rp6518
(dp6519
g8
F2.0000018707833078e-07
sg9
g2
(g10
g11
F1.0208983220747053e-07
tp6520
Rp6521
sg14
Nsg15
(dp6522
g6518
F1.0
ssbg2
(g3
g4
Ntp6523
Rp6524
(dp6525
g8
F2.0000125289243442e-07
sg9
g2
(g10
g11
F1.3499063924746225e-07
tp6526
Rp6527
sg14
Nsg15
(dp6528
g6524
F1.0
ssbg2
(g3
g4
Ntp6529
Rp6530
(dp6531
g8
F1.2370277246986916e-08
sg9
g2
(g10
g11
F8.549639559896717e-09
tp6532
Rp6533
sg14
Nsg15
(dp6534
g6530
F1.0
ssbF0.0
F0.0
F1.2904
tp6535
sS'eq1b_eq3j_900_1200_mht_400_600'
p6536
(g2
(g3
g4
Ntp6537
Rp6538
(dp6539
g8
F2.8401670455932617
sg9
g2
(g10
g11
F0.5583989840194947
tp6540
Rp6541
sg14
Nsg15
(dp6542
g6538
F1.0
ssbg2
(g3
g4
Ntp6543
Rp6544
(dp6545
g8
F0.9463932514190674
sg9
g2
(g10
g11
F0.20242386487529712
tp6546
Rp6547
sg14
Nsg15
(dp6548
g6544
F1.0
ssbg2
(g3
g4
Ntp6549
Rp6550
(dp6551
g8
F1.8937737941741943
sg9
g2
(g10
g11
F0.2642183216526884
tp6552
Rp6553
sg14
Nsg15
(dp6554
g6550
F1.0
ssbg2
(g3
g4
Ntp6555
Rp6556
(dp6557
g8
F5.966215299579858e-10
sg9
g2
(g10
g11
F3.6764578814074534e-10
tp6558
Rp6559
sg14
Nsg15
(dp6560
g6556
F1.0
ssbF5.0
F2.2495
F2.8064
tp6561
sS'eq2b_eq3j_900_1200_mht_400_600'
p6562
(g2
(g3
g4
Ntp6563
Rp6564
(dp6565
g8
F0.21806485950946808
sg9
g2
(g10
g11
F0.04421553879794899
tp6566
Rp6567
sg14
Nsg15
(dp6568
g6564
F1.0
ssbg2
(g3
g4
Ntp6569
Rp6570
(dp6571
g8
F0.07079359889030457
sg9
g2
(g10
g11
F0.015119297862297876
tp6572
Rp6573
sg14
Nsg15
(dp6574
g6570
F1.0
ssbg2
(g3
g4
Ntp6575
Rp6576
(dp6577
g8
F0.1472712606191635
sg9
g2
(g10
g11
F0.0221206426636801
tp6578
Rp6579
sg14
Nsg15
(dp6580
g6576
F1.0
ssbg2
(g3
g4
Ntp6581
Rp6582
(dp6583
g8
F4.5164434692157585e-11
sg9
g2
(g10
g11
F2.771363883583618e-11
tp6584
Rp6585
sg14
Nsg15
(dp6586
g6582
F1.0
ssbF1.0
F0.6321
F1.7505000000000002
tp6587
sS'eq0b_ge6j_600_900_mht_500_550'
p6588
(g2
(g3
g4
Ntp6589
Rp6590
(dp6591
g8
F4.200436115264893
sg9
g2
(g10
g11
F2.1924558120502606
tp6592
Rp6593
sg14
Nsg15
(dp6594
g6590
F1.0
ssbg2
(g3
g4
Ntp6595
Rp6596
(dp6597
g8
F1.4351615905761719
sg9
g2
(g10
g11
F0.4514695860630038
tp6598
Rp6599
sg14
Nsg15
(dp6600
g6596
F1.0
ssbg2
(g3
g4
Ntp6601
Rp6602
(dp6603
g8
F2.7652745246887207
sg9
g2
(g10
g11
F2.0935202765766343
tp6604
Rp6605
sg14
Nsg15
(dp6606
g6602
F1.0
ssbg2
(g3
g4
Ntp6607
Rp6608
(dp6609
g8
F4.445475454417647e-08
sg9
g2
(g10
g11
F4.212173401890716e-08
tp6610
Rp6611
sg14
Nsg15
(dp6612
g6608
F1.0
ssbF2.0
F1.2642
F2.2504
tp6613
sS'eq2b_eq2j_600_Inf_mht_200_400'
p6614
(g2
(g3
g4
Ntp6615
Rp6616
(dp6617
g8
F0.2057313621044159
sg9
g2
(g10
g11
F0.0634922512913568
tp6618
Rp6619
sg14
Nsg15
(dp6620
g6616
F1.0
ssbg2
(g3
g4
Ntp6621
Rp6622
(dp6623
g8
F0.06910067796707153
sg9
g2
(g10
g11
F0.016141870641306153
tp6624
Rp6625
sg14
Nsg15
(dp6626
g6622
F1.0
ssbg2
(g3
g4
Ntp6627
Rp6628
(dp6629
g8
F0.13523373007774353
sg9
g2
(g10
g11
F0.035444580121426955
tp6630
Rp6631
sg14
Nsg15
(dp6632
g6628
F1.0
ssbg2
(g3
g4
Ntp6633
Rp6634
(dp6635
g8
F0.0013969526626169682
sg9
g2
(g10
g11
F0.0010312927039882074
tp6636
Rp6637
sg14
Nsg15
(dp6638
g6634
F1.0
ssbF0.0
F0.0
F1.2904
tp6639
sS'eq1b_ge2a_400_600_mht_500_550'
p6640
(g2
(g3
g4
Ntp6641
Rp6642
(dp6643
g8
F3.999998341441824e-07
sg9
g2
(g10
g11
F2.46333183683577e-07
tp6644
Rp6645
sg14
Nsg15
(dp6646
g6642
F1.0
ssbg2
(g3
g4
Ntp6647
Rp6648
(dp6649
g8
F1.9999994549380062e-07
sg9
g2
(g10
g11
F8.695674404181794e-08
tp6650
Rp6651
sg14
Nsg15
(dp6652
g6648
F1.0
ssbg2
(g3
g4
Ntp6653
Rp6654
(dp6655
g8
F1.9999987443952705e-07
sg9
g2
(g10
g11
F1.0867498429703423e-07
tp6656
Rp6657
sg14
Nsg15
(dp6658
g6654
F1.0
ssbg2
(g3
g4
Ntp6659
Rp6660
(dp6661
g8
F1.2451529908426024e-16
sg9
g2
(g10
g11
F8.133316159173117e-17
tp6662
Rp6663
sg14
Nsg15
(dp6664
g6660
F1.0
ssbF0.0
F0.0
F1.2904
tp6665
sS'eq3b_ge6j_900_1200_mht_400_600'
p6666
(g2
(g3
g4
Ntp6667
Rp6668
(dp6669
g8
F0.08856481313705444
sg9
g2
(g10
g11
F0.02509391994347514
tp6670
Rp6671
sg14
Nsg15
(dp6672
g6668
F1.0
ssbg2
(g3
g4
Ntp6673
Rp6674
(dp6675
g8
F0.06324160844087601
sg9
g2
(g10
g11
F0.01693106103279778
tp6676
Rp6677
sg14
Nsg15
(dp6678
g6674
F1.0
ssbg2
(g3
g4
Ntp6679
Rp6680
(dp6681
g8
F0.02168075181543827
sg9
g2
(g10
g11
F0.011107419358587408
tp6682
Rp6683
sg14
Nsg15
(dp6684
g6680
F1.0
ssbg2
(g3
g4
Ntp6685
Rp6686
(dp6687
g8
F0.003642450086772442
sg9
g2
(g10
g11
F0.0031247034295365317
tp6688
Rp6689
sg14
Nsg15
(dp6690
g6686
F1.0
ssbF0.0
F0.0
F1.2904
tp6691
sS'eq2b_eq2j_400_600_mht_500_550'
p6692
(g2
(g3
g4
Ntp6693
Rp6694
(dp6695
g8
F4.0136319512384944e-07
sg9
g2
(g10
g11
F3.9603743204512165e-07
tp6696
Rp6697
sg14
Nsg15
(dp6698
g6694
F1.0
ssbg2
(g3
g4
Ntp6699
Rp6700
(dp6701
g8
F1.9999725964225945e-07
sg9
g2
(g10
g11
F1.4079132141153867e-07
tp6702
Rp6703
sg14
Nsg15
(dp6704
g6700
F1.0
ssbg2
(g3
g4
Ntp6705
Rp6706
(dp6707
g8
F1.9999774281131977e-07
sg9
g2
(g10
g11
F1.39471953385885e-07
tp6708
Rp6709
sg14
Nsg15
(dp6710
g6706
F1.0
ssbg2
(g3
g4
Ntp6711
Rp6712
(dp6713
g8
F1.3682069921472362e-09
sg9
g2
(g10
g11
F8.091548594890526e-10
tp6714
Rp6715
sg14
Nsg15
(dp6716
g6712
F1.0
ssbF0.0
F0.0
F1.2904
tp6717
sS'eq1b_eq4j_1200_Inf_mht_400_600'
p6718
(g2
(g3
g4
Ntp6719
Rp6720
(dp6721
g8
F1.253537654876709
sg9
g2
(g10
g11
F0.2640509789114809
tp6722
Rp6723
sg14
Nsg15
(dp6724
g6720
F1.0
ssbg2
(g3
g4
Ntp6725
Rp6726
(dp6727
g8
F0.5029445886611938
sg9
g2
(g10
g11
F0.13518886723843265
tp6728
Rp6729
sg14
Nsg15
(dp6730
g6726
F1.0
ssbg2
(g3
g4
Ntp6731
Rp6732
(dp6733
g8
F0.7505930662155151
sg9
g2
(g10
g11
F0.1475132244453391
tp6734
Rp6735
sg14
Nsg15
(dp6736
g6732
F1.0
ssbg2
(g3
g4
Ntp6737
Rp6738
(dp6739
g8
F1.8126480871849537e-10
sg9
g2
(g10
g11
F2.0211130263852639e-10
tp6740
Rp6741
sg14
Nsg15
(dp6742
g6738
F1.0
ssbF0.0
F0.0
F1.2904
tp6743
sS'eq3b_eq3j_400_600_mht_500_550'
p6744
(g2
(g3
g4
Ntp6745
Rp6746
(dp6747
g8
F4.012364058780804e-07
sg9
g2
(g10
g11
F3.9853239795781456e-07
tp6748
Rp6749
sg14
Nsg15
(dp6750
g6746
F1.0
ssbg2
(g3
g4
Ntp6751
Rp6752
(dp6753
g8
F1.9996913636077807e-07
sg9
g2
(g10
g11
F1.4075007387329392e-07
tp6754
Rp6755
sg14
Nsg15
(dp6756
g6752
F1.0
ssbg2
(g3
g4
Ntp6757
Rp6758
(dp6759
g8
F2.0005707312975574e-07
sg9
g2
(g10
g11
F1.412942041021252e-07
tp6760
Rp6761
sg14
Nsg15
(dp6762
g6758
F1.0
ssbg2
(g3
g4
Ntp6763
Rp6764
(dp6765
g8
F1.2101875057624056e-09
sg9
g2
(g10
g11
F9.229970046789347e-10
tp6766
Rp6767
sg14
Nsg15
(dp6768
g6764
F1.0
ssbF0.0
F0.0
F1.2904
tp6769
sS'eq3b_eq5j_600_900_mht_700_750'
p6770
(g2
(g3
g4
Ntp6771
Rp6772
(dp6773
g8
F3.999535636012297e-07
sg9
g2
(g10
g11
F3.987809946905331e-07
tp6774
Rp6775
sg14
Nsg15
(dp6776
g6772
F1.0
ssbg2
(g3
g4
Ntp6777
Rp6778
(dp6779
g8
F1.9998856259917375e-07
sg9
g2
(g10
g11
F1.4069971014943357e-07
tp6780
Rp6781
sg14
Nsg15
(dp6782
g6778
F1.0
ssbg2
(g3
g4
Ntp6783
Rp6784
(dp6785
g8
F1.9996500100205594e-07
sg9
g2
(g10
g11
F1.4128194920482269e-07
tp6786
Rp6787
sg14
Nsg15
(dp6788
g6784
F1.0
ssbg2
(g3
g4
Ntp6789
Rp6790
(dp6791
g8
F3.4899525608154567e-16
sg9
g2
(g10
g11
F2.96657419587553e-16
tp6792
Rp6793
sg14
Nsg15
(dp6794
g6790
F1.0
ssbF0.0
F0.0
F1.2904
tp6795
sS'eq2b_eq3j_900_1200_mht_900_950'
p6796
(g2
(g3
g4
Ntp6797
Rp6798
(dp6799
g8
F0.04489145055413246
sg9
g2
(g10
g11
F0.023457188284139487
tp6800
Rp6801
sg14
Nsg15
(dp6802
g6798
F1.0
ssbg2
(g3
g4
Ntp6803
Rp6804
(dp6805
g8
F0.0026844434905797243
sg9
g2
(g10
g11
F0.001785275742537113
tp6806
Rp6807
sg14
Nsg15
(dp6808
g6804
F1.0
ssbg2
(g3
g4
Ntp6809
Rp6810
(dp6811
g8
F0.042207006365060806
sg9
g2
(g10
g11
F0.01686558807567621
tp6812
Rp6813
sg14
Nsg15
(dp6814
g6810
F1.0
ssbg2
(g3
g4
Ntp6815
Rp6816
(dp6817
g8
F9.362238415078217e-12
sg9
g2
(g10
g11
F5.874515575893984e-12
tp6818
Rp6819
sg14
Nsg15
(dp6820
g6816
F1.0
ssbF0.0
F0.0
F1.2904
tp6821
sS'eq2b_ge6j_900_1200_mht_400_600'
p6822
(g2
(g3
g4
Ntp6823
Rp6824
(dp6825
g8
F0.6118540167808533
sg9
g2
(g10
g11
F0.16324528932419993
tp6826
Rp6827
sg14
Nsg15
(dp6828
g6824
F1.0
ssbg2
(g3
g4
Ntp6829
Rp6830
(dp6831
g8
F0.4079752266407013
sg9
g2
(g10
g11
F0.08938890342341509
tp6832
Rp6833
sg14
Nsg15
(dp6834
g6830
F1.0
ssbg2
(g3
g4
Ntp6835
Rp6836
(dp6837
g8
F0.17951007187366486
sg9
g2
(g10
g11
F0.08829911312897777
tp6838
Rp6839
sg14
Nsg15
(dp6840
g6836
F1.0
ssbg2
(g3
g4
Ntp6841
Rp6842
(dp6843
g8
F0.024368740618228912
sg9
g2
(g10
g11
F0.020267096540308546
tp6844
Rp6845
sg14
Nsg15
(dp6846
g6842
F1.0
ssbF0.0
F0.0
F1.2904
tp6847
sS'eq0b_eq3j_600_900_mht_400_600'
p6848
(g2
(g3
g4
Ntp6849
Rp6850
(dp6851
g8
F72.9737319946289
sg9
g2
(g10
g11
F14.402112339644834
tp6852
Rp6853
sg14
Nsg15
(dp6854
g6850
F1.0
ssbg2
(g3
g4
Ntp6855
Rp6856
(dp6857
g8
F21.62696075439453
sg9
g2
(g10
g11
F4.768644615198793
tp6858
Rp6859
sg14
Nsg15
(dp6860
g6856
F1.0
ssbg2
(g3
g4
Ntp6861
Rp6862
(dp6863
g8
F51.346771240234375
sg9
g2
(g10
g11
F8.035081789731562
tp6864
Rp6865
sg14
Nsg15
(dp6866
g6862
F1.0
ssbg2
(g3
g4
Ntp6867
Rp6868
(dp6869
g8
F5.879163467170656e-08
sg9
g2
(g10
g11
F4.5410593532787146e-08
tp6870
Rp6871
sg14
Nsg15
(dp6872
g6868
F1.0
ssbF66.0
F8.12403840463596
F8.12403840463596
tp6873
sS'eq0b_ge6j_1200_Inf_mht_200_400'
p6874
(g2
(g3
g4
Ntp6875
Rp6876
(dp6877
g8
F2.3162107467651367
sg9
g2
(g10
g11
F1.317207714572792
tp6878
Rp6879
sg14
Nsg15
(dp6880
g6876
F1.0
ssbg2
(g3
g4
Ntp6881
Rp6882
(dp6883
g8
F1.0877245664596558
sg9
g2
(g10
g11
F0.2881569529790508
tp6884
Rp6885
sg14
Nsg15
(dp6886
g6882
F1.0
ssbg2
(g3
g4
Ntp6887
Rp6888
(dp6889
g8
F1.1933568716049194
sg9
g2
(g10
g11
F1.2035056089326803
tp6890
Rp6891
sg14
Nsg15
(dp6892
g6888
F1.0
ssbg2
(g3
g4
Ntp6893
Rp6894
(dp6895
g8
F0.03512927517294884
sg9
g2
(g10
g11
F0.03312645756015878
tp6896
Rp6897
sg14
Nsg15
(dp6898
g6894
F1.0
ssbF2.0
F1.2642
F2.2504
tp6899
sS'eq0b_eq3j_1200_Inf_mht_200_400'
p6900
(g2
(g3
g4
Ntp6901
Rp6902
(dp6903
g8
F2.8022451400756836
sg9
g2
(g10
g11
F0.7891714855504836
tp6904
Rp6905
sg14
Nsg15
(dp6906
g6902
F1.0
ssbg2
(g3
g4
Ntp6907
Rp6908
(dp6909
g8
F0.894129753112793
sg9
g2
(g10
g11
F0.26971343586530333
tp6910
Rp6911
sg14
Nsg15
(dp6912
g6908
F1.0
ssbg2
(g3
g4
Ntp6913
Rp6914
(dp6915
g8
F1.9081153869628906
sg9
g2
(g10
g11
F0.6014380388191075
tp6916
Rp6917
sg14
Nsg15
(dp6918
g6914
F1.0
ssbg2
(g3
g4
Ntp6919
Rp6920
(dp6921
g8
F7.57255702588111e-10
sg9
g2
(g10
g11
F6.803089675322914e-10
tp6922
Rp6923
sg14
Nsg15
(dp6924
g6920
F1.0
ssbF3.0
F1.8964
F2.3011999999999997
tp6925
sS'eq0b_eq4j_1200_Inf_mht_900_950'
p6926
(g2
(g3
g4
Ntp6927
Rp6928
(dp6929
g8
F1.7610137462615967
sg9
g2
(g10
g11
F1.1408915837874478
tp6930
Rp6931
sg14
Nsg15
(dp6932
g6928
F1.0
ssbg2
(g3
g4
Ntp6933
Rp6934
(dp6935
g8
F0.29092246294021606
sg9
g2
(g10
g11
F0.21118140918520556
tp6936
Rp6937
sg14
Nsg15
(dp6938
g6934
F1.0
ssbg2
(g3
g4
Ntp6939
Rp6940
(dp6941
g8
F1.4700913429260254
sg9
g2
(g10
g11
F0.9612678468632382
tp6942
Rp6943
sg14
Nsg15
(dp6944
g6940
F1.0
ssbg2
(g3
g4
Ntp6945
Rp6946
(dp6947
g8
F2.524842834805696e-10
sg9
g2
(g10
g11
F2.815219759509349e-10
tp6948
Rp6949
sg14
Nsg15
(dp6950
g6946
F1.0
ssbF4.0
F1.6641
F2.7763999999999998
tp6951
sS'eq1b_eq1j_600_Inf_mht_200_Inf'
p6952
(g2
(g3
g4
Ntp6953
Rp6954
(dp6955
g8
F4.647599697113037
sg9
g2
(g10
g11
F1.4872039756816156
tp6956
Rp6957
sg14
Nsg15
(dp6958
g6954
F1.0
ssbg2
(g3
g4
Ntp6959
Rp6960
(dp6961
g8
F0.808899998664856
sg9
g2
(g10
g11
F0.22590869998988555
tp6962
Rp6963
sg14
Nsg15
(dp6964
g6960
F1.0
ssbg2
(g3
g4
Ntp6965
Rp6966
(dp6967
g8
F3.83870005607605
sg9
g2
(g10
g11
F0.806886498615291
tp6968
Rp6969
sg14
Nsg15
(dp6970
g6966
F1.0
ssbg2
(g3
g4
Ntp6971
Rp6972
(dp6973
g8
F0.0
sg9
g2
(g10
g11
F0.0
tp6974
Rp6975
sg14
Nsg15
(dp6976
g6972
F1.0
ssbF10.0
F3.2236000000000002
F3.805999999999999
tp6977
sS'eq2b_eq5j_400_600_mht_400_500'
p6978
(g2
(g3
g4
Ntp6979
Rp6980
(dp6981
g8
F0.630548894405365
sg9
g2
(g10
g11
F0.11440266092313563
tp6982
Rp6983
sg14
Nsg15
(dp6984
g6980
F1.0
ssbg2
(g3
g4
Ntp6985
Rp6986
(dp6987
g8
F0.4620784521102905
sg9
g2
(g10
g11
F0.09353492743160849
tp6988
Rp6989
sg14
Nsg15
(dp6990
g6986
F1.0
ssbg2
(g3
g4
Ntp6991
Rp6992
(dp6993
g8
F0.16847047209739685
sg9
g2
(g10
g11
F0.04160931519458582
tp6994
Rp6995
sg14
Nsg15
(dp6996
g6992
F1.0
ssbg2
(g3
g4
Ntp6997
Rp6998
(dp6999
g8
F3.2970470797977214e-09
sg9
g2
(g10
g11
F2.348272310558634e-09
tp7000
Rp7001
sg14
Nsg15
(dp7002
g6998
F1.0
ssbF0.0
F0.0
F1.2904
tp7003
sS'eq0b_eq4j_900_1200_mht_900_950'
p7004
(g2
(g3
g4
Ntp7005
Rp7006
(dp7007
g8
F1.3331449031829834
sg9
g2
(g10
g11
F0.6826865073440154
tp7008
Rp7009
sg14
Nsg15
(dp7010
g7006
F1.0
ssbg2
(g3
g4
Ntp7011
Rp7012
(dp7013
g8
F0.25493037700653076
sg9
g2
(g10
g11
F0.12391372754310441
tp7014
Rp7015
sg14
Nsg15
(dp7016
g7012
F1.0
ssbg2
(g3
g4
Ntp7017
Rp7018
(dp7019
g8
F1.0782145261764526
sg9
g2
(g10
g11
F0.4383002020398283
tp7020
Rp7021
sg14
Nsg15
(dp7022
g7018
F1.0
ssbg2
(g3
g4
Ntp7023
Rp7024
(dp7025
g8
F3.2121427739895125e-10
sg9
g2
(g10
g11
F2.679076159845921e-10
tp7026
Rp7027
sg14
Nsg15
(dp7028
g7024
F1.0
ssbF1.0
F0.6321
F1.7505000000000002
tp7029
sS'eq1b_eq3j_900_1200_mht_900_950'
p7030
(g2
(g3
g4
Ntp7031
Rp7032
(dp7033
g8
F0.5203583836555481
sg9
g2
(g10
g11
F0.2300291569514407
tp7034
Rp7035
sg14
Nsg15
(dp7036
g7032
F1.0
ssbg2
(g3
g4
Ntp7037
Rp7038
(dp7039
g8
F0.041342198848724365
sg9
g2
(g10
g11
F0.023313647097204074
tp7040
Rp7041
sg14
Nsg15
(dp7042
g7038
F1.0
ssbg2
(g3
g4
Ntp7043
Rp7044
(dp7045
g8
F0.47901618480682373
sg9
g2
(g10
g11
F0.16622297554934792
tp7046
Rp7047
sg14
Nsg15
(dp7048
g7044
F1.0
ssbg2
(g3
g4
Ntp7049
Rp7050
(dp7051
g8
F1.0926302917990682e-10
sg9
g2
(g10
g11
F6.987341673774647e-11
tp7052
Rp7053
sg14
Nsg15
(dp7054
g7050
F1.0
ssbF0.0
F0.0
F1.2904
tp7055
sS'eq2b_eq5j_400_600_mht_200_400'
p7056
(g2
(g3
g4
Ntp7057
Rp7058
(dp7059
g8
F36.06454849243164
sg9
g2
(g10
g11
F5.540016226073372
tp7060
Rp7061
sg14
Nsg15
(dp7062
g7058
F1.0
ssbg2
(g3
g4
Ntp7063
Rp7064
(dp7065
g8
F33.26251983642578
sg9
g2
(g10
g11
F4.082398234101724
tp7066
Rp7067
sg14
Nsg15
(dp7068
g7064
F1.0
ssbg2
(g3
g4
Ntp7069
Rp7070
(dp7071
g8
F2.8020293712615967
sg9
g2
(g10
g11
F0.2931641234944869
tp7072
Rp7073
sg14
Nsg15
(dp7074
g7070
F1.0
ssbg2
(g3
g4
Ntp7075
Rp7076
(dp7077
g8
F1.8935295997835055e-07
sg9
g2
(g10
g11
F1.1834982244424774e-07
tp7078
Rp7079
sg14
Nsg15
(dp7080
g7076
F1.0
ssbF36.0
F6.0
F6.0
tp7081
sS'eq2b_eq4j_600_900_mht_200_400'
p7082
(g2
(g3
g4
Ntp7083
Rp7084
(dp7085
g8
F5.026044845581055
sg9
g2
(g10
g11
F0.6201116510579623
tp7086
Rp7087
sg14
Nsg15
(dp7088
g7084
F1.0
ssbg2
(g3
g4
Ntp7089
Rp7090
(dp7091
g8
F3.2804479598999023
sg9
g2
(g10
g11
F0.49958684898817196
tp7092
Rp7093
sg14
Nsg15
(dp7094
g7090
F1.0
ssbg2
(g3
g4
Ntp7095
Rp7096
(dp7097
g8
F1.7455966472625732
sg9
g2
(g10
g11
F0.20138971922326923
tp7098
Rp7099
sg14
Nsg15
(dp7100
g7096
F1.0
ssbg2
(g3
g4
Ntp7101
Rp7102
(dp7103
g8
F5.832042848652463e-09
sg9
g2
(g10
g11
F4.7653701439430664e-09
tp7104
Rp7105
sg14
Nsg15
(dp7106
g7102
F1.0
ssbF5.0
F2.2495
F2.8064
tp7107
sS'eq2b_ge6j_1200_Inf_mht_200_400'
p7108
(g2
(g3
g4
Ntp7109
Rp7110
(dp7111
g8
F0.3218713104724884
sg9
g2
(g10
g11
F0.11190019824578909
tp7112
Rp7113
sg14
Nsg15
(dp7114
g7110
F1.0
ssbg2
(g3
g4
Ntp7115
Rp7116
(dp7117
g8
F0.26018211245536804
sg9
g2
(g10
g11
F0.07594605841111914
tp7118
Rp7119
sg14
Nsg15
(dp7120
g7116
F1.0
ssbg2
(g3
g4
Ntp7121
Rp7122
(dp7123
g8
F0.056793589144945145
sg9
g2
(g10
g11
F0.0608858745700226
tp7124
Rp7125
sg14
Nsg15
(dp7126
g7122
F1.0
ssbg2
(g3
g4
Ntp7127
Rp7128
(dp7129
g8
F0.004895604215562344
sg9
g2
(g10
g11
F0.004616161992987975
tp7130
Rp7131
sg14
Nsg15
(dp7132
g7128
F1.0
ssbF0.0
F0.0
F1.2904
tp7133
sS'eq2b_eq3j_1200_Inf_mht_600_900'
p7134
(g2
(g3
g4
Ntp7135
Rp7136
(dp7137
g8
F0.050792694091796875
sg9
g2
(g10
g11
F0.021347188778686084
tp7138
Rp7139
sg14
Nsg15
(dp7140
g7136
F1.0
ssbg2
(g3
g4
Ntp7141
Rp7142
(dp7143
g8
F0.009818187914788723
sg9
g2
(g10
g11
F0.004749275728349218
tp7144
Rp7145
sg14
Nsg15
(dp7146
g7142
F1.0
ssbg2
(g3
g4
Ntp7147
Rp7148
(dp7149
g8
F0.04097450524568558
sg9
g2
(g10
g11
F0.01685318600965223
tp7150
Rp7151
sg14
Nsg15
(dp7152
g7148
F1.0
ssbg2
(g3
g4
Ntp7153
Rp7154
(dp7155
g8
F1.3762268234740471e-11
sg9
g2
(g10
g11
F1.2363973476074451e-11
tp7156
Rp7157
sg14
Nsg15
(dp7158
g7154
F1.0
ssbF0.0
F0.0
F1.2904
tp7159
sS'eq1b_ge2a_900_Inf_mht_900_950'
p7160
(g2
(g3
g4
Ntp7161
Rp7162
(dp7163
g8
F0.7341810464859009
sg9
g2
(g10
g11
F0.39804585674780824
tp7164
Rp7165
sg14
Nsg15
(dp7166
g7162
F1.0
ssbg2
(g3
g4
Ntp7167
Rp7168
(dp7169
g8
F0.1368616223335266
sg9
g2
(g10
g11
F0.07740675546652798
tp7170
Rp7171
sg14
Nsg15
(dp7172
g7168
F1.0
ssbg2
(g3
g4
Ntp7173
Rp7174
(dp7175
g8
F0.5973194241523743
sg9
g2
(g10
g11
F0.32892940195108056
tp7176
Rp7177
sg14
Nsg15
(dp7178
g7174
F1.0
ssbg2
(g3
g4
Ntp7179
Rp7180
(dp7181
g8
F0.0
sg9
g2
(g10
g11
F0.0
tp7182
Rp7183
sg14
Nsg15
(dp7184
g7180
F1.0
ssbF1.0
F0.6321
F1.7505000000000002
tp7185
sS'eq1b_ge2a_600_900_mht_200_400'
p7186
(g2
(g3
g4
Ntp7187
Rp7188
(dp7189
g8
F2.27793288230896
sg9
g2
(g10
g11
F0.39990481197727307
tp7190
Rp7191
sg14
Nsg15
(dp7192
g7188
F1.0
ssbg2
(g3
g4
Ntp7193
Rp7194
(dp7195
g8
F1.4636526107788086
sg9
g2
(g10
g11
F0.2889633939293488
tp7196
Rp7197
sg14
Nsg15
(dp7198
g7194
F1.0
ssbg2
(g3
g4
Ntp7199
Rp7200
(dp7201
g8
F0.8142803311347961
sg9
g2
(g10
g11
F0.17831305063926806
tp7202
Rp7203
sg14
Nsg15
(dp7204
g7200
F1.0
ssbg2
(g3
g4
Ntp7205
Rp7206
(dp7207
g8
F3.6693248439689796e-10
sg9
g2
(g10
g11
F3.7659085668023634e-10
tp7208
Rp7209
sg14
Nsg15
(dp7210
g7206
F1.0
ssbF1.0
F0.6321
F1.7505000000000002
tp7211
sS'eq2b_eq4j_400_600_mht_200_400'
p7212
(g2
(g3
g4
Ntp7213
Rp7214
(dp7215
g8
F68.01993560791016
sg9
g2
(g10
g11
F9.608104082622129
tp7216
Rp7217
sg14
Nsg15
(dp7218
g7214
F1.0
ssbg2
(g3
g4
Ntp7219
Rp7220
(dp7221
g8
F55.99473190307617
sg9
g2
(g10
g11
F7.3776578814302365
tp7222
Rp7223
sg14
Nsg15
(dp7224
g7220
F1.0
ssbg2
(g3
g4
Ntp7225
Rp7226
(dp7227
g8
F8.076309204101562
sg9
g2
(g10
g11
F0.6977988581129
tp7228
Rp7229
sg14
Nsg15
(dp7230
g7226
F1.0
ssbg2
(g3
g4
Ntp7231
Rp7232
(dp7233
g8
F3.9488959312438965
sg9
g2
(g10
g11
F3.2521325846691127
tp7234
Rp7235
sg14
Nsg15
(dp7236
g7232
F1.0
ssbF73.0
F8.54400374531753
F8.54400374531753
tp7237
sS'eq2b_eq4j_900_1200_mht_600_900'
p7238
(g2
(g3
g4
Ntp7239
Rp7240
(dp7241
g8
F0.21307381987571716
sg9
g2
(g10
g11
F0.06811637193830568
tp7242
Rp7243
sg14
Nsg15
(dp7244
g7240
F1.0
ssbg2
(g3
g4
Ntp7245
Rp7246
(dp7247
g8
F0.06749439239501953
sg9
g2
(g10
g11
F0.01899172441466406
tp7248
Rp7249
sg14
Nsg15
(dp7250
g7246
F1.0
ssbg2
(g3
g4
Ntp7251
Rp7252
(dp7253
g8
F0.14557942748069763
sg9
g2
(g10
g11
F0.03837082950159698
tp7254
Rp7255
sg14
Nsg15
(dp7256
g7252
F1.0
ssbg2
(g3
g4
Ntp7257
Rp7258
(dp7259
g8
F5.1130683020872425e-11
sg9
g2
(g10
g11
F3.84639191679276e-11
tp7260
Rp7261
sg14
Nsg15
(dp7262
g7258
F1.0
ssbF0.0
F0.0
F1.2904
tp7263
sS'eq0b_ge6j_1200_Inf_mht_900_950'
p7264
(g2
(g3
g4
Ntp7265
Rp7266
(dp7267
g8
F0.3535369038581848
sg9
g2
(g10
g11
F0.3925257831050359
tp7268
Rp7269
sg14
Nsg15
(dp7270
g7266
F1.0
ssbg2
(g3
g4
Ntp7271
Rp7272
(dp7273
g8
F0.060981590300798416
sg9
g2
(g10
g11
F0.044484924179026254
tp7274
Rp7275
sg14
Nsg15
(dp7276
g7272
F1.0
ssbg2
(g3
g4
Ntp7277
Rp7278
(dp7279
g8
F0.28719204664230347
sg9
g2
(g10
g11
F0.376495026047718
tp7280
Rp7281
sg14
Nsg15
(dp7282
g7278
F1.0
ssbg2
(g3
g4
Ntp7283
Rp7284
(dp7285
g8
F0.0053632534109056
sg9
g2
(g10
g11
F0.005057353167687012
tp7286
Rp7287
sg14
Nsg15
(dp7288
g7284
F1.0
ssbF0.0
F0.0
F1.2904
tp7289
sS'eq2b_eq5j_600_900_mht_200_400'
p7290
(g2
(g3
g4
Ntp7291
Rp7292
(dp7293
g8
F8.757182121276855
sg9
g2
(g10
g11
F1.3760544496453153
tp7294
Rp7295
sg14
Nsg15
(dp7296
g7292
F1.0
ssbg2
(g3
g4
Ntp7297
Rp7298
(dp7299
g8
F7.327604293823242
sg9
g2
(g10
g11
F1.1687501713553725
tp7300
Rp7301
sg14
Nsg15
(dp7302
g7298
F1.0
ssbg2
(g3
g4
Ntp7303
Rp7304
(dp7305
g8
F1.4295775890350342
sg9
g2
(g10
g11
F0.1940716703524127
tp7306
Rp7307
sg14
Nsg15
(dp7308
g7304
F1.0
ssbg2
(g3
g4
Ntp7309
Rp7310
(dp7311
g8
F1.5253595719855184e-08
sg9
g2
(g10
g11
F1.2830469951564193e-08
tp7312
Rp7313
sg14
Nsg15
(dp7314
g7310
F1.0
ssbF7.0
F2.7496
F3.3005999999999993
tp7315
sS'eq2b_eq5j_1200_Inf_mht_900_950'
p7316
(g2
(g3
g4
Ntp7317
Rp7318
(dp7319
g8
F0.02998344600200653
sg9
g2
(g10
g11
F0.020685249384823728
tp7320
Rp7321
sg14
Nsg15
(dp7322
g7318
F1.0
ssbg2
(g3
g4
Ntp7323
Rp7324
(dp7325
g8
F0.0036534955725073814
sg9
g2
(g10
g11
F0.0026305513971641697
tp7326
Rp7327
sg14
Nsg15
(dp7328
g7324
F1.0
ssbg2
(g3
g4
Ntp7329
Rp7330
(dp7331
g8
F0.026329949498176575
sg9
g2
(g10
g11
F0.018581444370768516
tp7332
Rp7333
sg14
Nsg15
(dp7334
g7330
F1.0
ssbg2
(g3
g4
Ntp7335
Rp7336
(dp7337
g8
F6.7679026445610635e-12
sg9
g2
(g10
g11
F5.961892735256048e-12
tp7338
Rp7339
sg14
Nsg15
(dp7340
g7336
F1.0
ssbF0.0
F0.0
F1.2904
tp7341
sS'eq2b_eq5j_900_1200_mht_700_750'
p7342
(g2
(g3
g4
Ntp7343
Rp7344
(dp7345
g8
F0.07613031566143036
sg9
g2
(g10
g11
F0.03035289182169856
tp7346
Rp7347
sg14
Nsg15
(dp7348
g7344
F1.0
ssbg2
(g3
g4
Ntp7349
Rp7350
(dp7351
g8
F0.02583935484290123
sg9
g2
(g10
g11
F0.010711496466317406
tp7352
Rp7353
sg14
Nsg15
(dp7354
g7350
F1.0
ssbg2
(g3
g4
Ntp7355
Rp7356
(dp7357
g8
F0.05029096454381943
sg9
g2
(g10
g11
F0.022883388169734013
tp7358
Rp7359
sg14
Nsg15
(dp7360
g7356
F1.0
ssbg2
(g3
g4
Ntp7361
Rp7362
(dp7363
g8
F1.7762118165176588e-11
sg9
g2
(g10
g11
F1.646306070470329e-11
tp7364
Rp7365
sg14
Nsg15
(dp7366
g7362
F1.0
ssbF0.0
F0.0
F1.2904
tp7367
sS'eq0b_eq2j_1200_Inf_mht_400_600'
p7368
(g2
(g3
g4
Ntp7369
Rp7370
(dp7371
g8
F4.22599983215332
sg9
g2
(g10
g11
F1.3506604874806274
tp7372
Rp7373
sg14
Nsg15
(dp7374
g7370
F1.0
ssbg2
(g3
g4
Ntp7375
Rp7376
(dp7377
g8
F1.0956226587295532
sg9
g2
(g10
g11
F0.393870659158092
tp7378
Rp7379
sg14
Nsg15
(dp7380
g7376
F1.0
ssbg2
(g3
g4
Ntp7381
Rp7382
(dp7383
g8
F3.1303772926330566
sg9
g2
(g10
g11
F0.9990576691043861
tp7384
Rp7385
sg14
Nsg15
(dp7386
g7382
F1.0
ssbg2
(g3
g4
Ntp7387
Rp7388
(dp7389
g8
F7.17237158553985e-10
sg9
g2
(g10
g11
F8.207659539302436e-10
tp7390
Rp7391
sg14
Nsg15
(dp7392
g7388
F1.0
ssbF1.0
F0.6321
F1.7505000000000002
tp7393
sS'eq0b_ge2a_600_900_mht_600_700'
p7394
(g2
(g3
g4
Ntp7395
Rp7396
(dp7397
g8
F19.707931518554688
sg9
g2
(g10
g11
F5.623951291129751
tp7398
Rp7399
sg14
Nsg15
(dp7400
g7396
F1.0
ssbg2
(g3
g4
Ntp7401
Rp7402
(dp7403
g8
F4.120759963989258
sg9
g2
(g10
g11
F1.592326263580272
tp7404
Rp7405
sg14
Nsg15
(dp7406
g7402
F1.0
ssbg2
(g3
g4
Ntp7407
Rp7408
(dp7409
g8
F15.587172508239746
sg9
g2
(g10
g11
F4.134391681986377
tp7410
Rp7411
sg14
Nsg15
(dp7412
g7408
F1.0
ssbg2
(g3
g4
Ntp7413
Rp7414
(dp7415
g8
F3.2217630785424944e-09
sg9
g2
(g10
g11
F4.458048046676545e-09
tp7416
Rp7417
sg14
Nsg15
(dp7418
g7414
F1.0
ssbF22.0
F4.695699999999999
F5.315000000000001
tp7419
sS'eq0b_ge6j_600_900_mht_400_500'
p7420
(g2
(g3
g4
Ntp7421
Rp7422
(dp7423
g8
F7.631041526794434
sg9
g2
(g10
g11
F3.328473793342641
tp7424
Rp7425
sg14
Nsg15
(dp7426
g7422
F1.0
ssbg2
(g3
g4
Ntp7427
Rp7428
(dp7429
g8
F3.0272927284240723
sg9
g2
(g10
g11
F0.570312290975454
tp7430
Rp7431
sg14
Nsg15
(dp7432
g7428
F1.0
ssbg2
(g3
g4
Ntp7433
Rp7434
(dp7435
g8
F4.603748798370361
sg9
g2
(g10
g11
F2.3932292162563473
tp7436
Rp7437
sg14
Nsg15
(dp7438
g7434
F1.0
ssbg2
(g3
g4
Ntp7439
Rp7440
(dp7441
g8
F8.063488365905869e-08
sg9
g2
(g10
g11
F6.414963926140039e-08
tp7442
Rp7443
sg14
Nsg15
(dp7444
g7440
F1.0
ssbF6.0
F2.1769
F3.2782999999999998
tp7445
sS'eq0b_eq2j_1200_Inf_mht_900_950'
p7446
(g2
(g3
g4
Ntp7447
Rp7448
(dp7449
g8
F2.6366522312164307
sg9
g2
(g10
g11
F2.173777409841924
tp7450
Rp7451
sg14
Nsg15
(dp7452
g7448
F1.0
ssbg2
(g3
g4
Ntp7453
Rp7454
(dp7455
g8
F0.4379359185695648
sg9
g2
(g10
g11
F0.39966461903543604
tp7456
Rp7457
sg14
Nsg15
(dp7458
g7454
F1.0
ssbg2
(g3
g4
Ntp7459
Rp7460
(dp7461
g8
F2.198716402053833
sg9
g2
(g10
g11
F1.8315670220736275
tp7462
Rp7463
sg14
Nsg15
(dp7464
g7460
F1.0
ssbg2
(g3
g4
Ntp7465
Rp7466
(dp7467
g8
F4.4748518779336166e-10
sg9
g2
(g10
g11
F5.120426577551447e-10
tp7468
Rp7469
sg14
Nsg15
(dp7470
g7466
F1.0
ssbF1.0
F0.6321
F1.7505000000000002
tp7471
sS'eq0b_eq5j_900_1200_mht_400_600'
p7472
(g2
(g3
g4
Ntp7473
Rp7474
(dp7475
g8
F8.544702529907227
sg9
g2
(g10
g11
F1.259991198312202
tp7476
Rp7477
sg14
Nsg15
(dp7478
g7474
F1.0
ssbg2
(g3
g4
Ntp7479
Rp7480
(dp7481
g8
F2.740945339202881
sg9
g2
(g10
g11
F0.5243444482498708
tp7482
Rp7483
sg14
Nsg15
(dp7484
g7480
F1.0
ssbg2
(g3
g4
Ntp7485
Rp7486
(dp7487
g8
F5.803757190704346
sg9
g2
(g10
g11
F0.692749897180754
tp7488
Rp7489
sg14
Nsg15
(dp7490
g7486
F1.0
ssbg2
(g3
g4
Ntp7491
Rp7492
(dp7493
g8
F1.99793293020889e-09
sg9
g2
(g10
g11
F1.5011708379258094e-09
tp7494
Rp7495
sg14
Nsg15
(dp7496
g7492
F1.0
ssbF7.0
F2.7496
F3.3005999999999993
tp7497
sS'eq0b_eq4j_400_600_mht_500_550'
p7498
(g2
(g3
g4
Ntp7499
Rp7500
(dp7501
g8
F6.874687414892833e-07
sg9
g2
(g10
g11
F8.138877481569511e-08
tp7502
Rp7503
sg14
Nsg15
(dp7504
g7500
F1.0
ssbg2
(g3
g4
Ntp7505
Rp7506
(dp7507
g8
F3.016448033577035e-07
sg9
g2
(g10
g11
F4.096326037988121e-08
tp7508
Rp7509
sg14
Nsg15
(dp7510
g7506
F1.0
ssbg2
(g3
g4
Ntp7511
Rp7512
(dp7513
g8
F3.458168862380262e-07
sg9
g2
(g10
g11
F2.7327021421103148e-08
tp7514
Rp7515
sg14
Nsg15
(dp7516
g7512
F1.0
ssbg2
(g3
g4
Ntp7517
Rp7518
(dp7519
g8
F4.0007098078831405e-08
sg9
g2
(g10
g11
F2.9577559794931683e-08
tp7520
Rp7521
sg14
Nsg15
(dp7522
g7518
F1.0
ssbF0.0
F0.0
F1.2904
tp7523
sS'eq0b_ge2a_900_Inf_mht_200_900'
p7524
(g2
(g3
g4
Ntp7525
Rp7526
(dp7527
g8
F3.993715763092041
sg9
g2
(g10
g11
F1.6449572637044594
tp7528
Rp7529
sg14
Nsg15
(dp7530
g7526
F1.0
ssbg2
(g3
g4
Ntp7531
Rp7532
(dp7533
g8
F0.7685480117797852
sg9
g2
(g10
g11
F0.37934598909215794
tp7534
Rp7535
sg14
Nsg15
(dp7536
g7532
F1.0
ssbg2
(g3
g4
Ntp7537
Rp7538
(dp7539
g8
F3.225167751312256
sg9
g2
(g10
g11
F1.3627093513009467
tp7540
Rp7541
sg14
Nsg15
(dp7542
g7538
F1.0
ssbg2
(g3
g4
Ntp7543
Rp7544
(dp7545
g8
F0.0
sg9
g2
(g10
g11
F0.0
tp7546
Rp7547
sg14
Nsg15
(dp7548
g7544
F1.0
ssbF6.0
F2.1769
F3.2782999999999998
tp7549
sS'eq3b_ge6j_1200_Inf_mht_400_600'
p7550
(g2
(g3
g4
Ntp7551
Rp7552
(dp7553
g8
F0.031255945563316345
sg9
g2
(g10
g11
F0.007825416973120879
tp7554
Rp7555
sg14
Nsg15
(dp7556
g7552
F1.0
ssbg2
(g3
g4
Ntp7557
Rp7558
(dp7559
g8
F0.023423636332154274
sg9
g2
(g10
g11
F0.006421976397867062
tp7560
Rp7561
sg14
Nsg15
(dp7562
g7558
F1.0
ssbg2
(g3
g4
Ntp7563
Rp7564
(dp7565
g8
F0.007376938592642546
sg9
g2
(g10
g11
F0.0020385595138384927
tp7566
Rp7567
sg14
Nsg15
(dp7568
g7564
F1.0
ssbg2
(g3
g4
Ntp7569
Rp7570
(dp7571
g8
F0.0004553719190880656
sg9
g2
(g10
g11
F0.0004293738329087775
tp7572
Rp7573
sg14
Nsg15
(dp7574
g7570
F1.0
ssbF0.0
F0.0
F1.2904
tp7575
sS'eq0b_ge2a_600_900_mht_700_750'
p7576
(g2
(g3
g4
Ntp7577
Rp7578
(dp7579
g8
F3.9999804357648827e-07
sg9
g2
(g10
g11
F3.63721601863825e-07
tp7580
Rp7581
sg14
Nsg15
(dp7582
g7578
F1.0
ssbg2
(g3
g4
Ntp7583
Rp7584
(dp7585
g8
F1.9999868072773097e-07
sg9
g2
(g10
g11
F1.350126844202627e-07
tp7586
Rp7587
sg14
Nsg15
(dp7588
g7584
F1.0
ssbg2
(g3
g4
Ntp7589
Rp7590
(dp7591
g8
F1.999993628487573e-07
sg9
g2
(g10
g11
F1.2301137454177042e-07
tp7592
Rp7593
sg14
Nsg15
(dp7594
g7590
F1.0
ssbg2
(g3
g4
Ntp7595
Rp7596
(dp7597
g8
F3.2694399737942124e-17
sg9
g2
(g10
g11
F2.7517568563818653e-17
tp7598
Rp7599
sg14
Nsg15
(dp7600
g7596
F1.0
ssbF0.0
F0.0
F1.2904
tp7601
sS'eq0b_ge2a_600_900_mht_400_600'
p7602
(g2
(g3
g4
Ntp7603
Rp7604
(dp7605
g8
F7.879913330078125
sg9
g2
(g10
g11
F1.4297560178253534
tp7606
Rp7607
sg14
Nsg15
(dp7608
g7604
F1.0
ssbg2
(g3
g4
Ntp7609
Rp7610
(dp7611
g8
F2.1867942810058594
sg9
g2
(g10
g11
F0.5401550896775394
tp7612
Rp7613
sg14
Nsg15
(dp7614
g7610
F1.0
ssbg2
(g3
g4
Ntp7615
Rp7616
(dp7617
g8
F5.693119049072266
sg9
g2
(g10
g11
F0.9805031041665715
tp7618
Rp7619
sg14
Nsg15
(dp7620
g7616
F1.0
ssbg2
(g3
g4
Ntp7621
Rp7622
(dp7623
g8
F1.2880708721851875e-09
sg9
g2
(g10
g11
F1.7823420183362302e-09
tp7624
Rp7625
sg14
Nsg15
(dp7626
g7622
F1.0
ssbF10.0
F3.2236000000000002
F3.805999999999999
tp7627
sS'eq0b_eq3j_400_600_mht_500_550'
p7628
(g2
(g3
g4
Ntp7629
Rp7630
(dp7631
g8
F1.0099429346155375e-06
sg9
g2
(g10
g11
F1.7218189272395708e-07
tp7632
Rp7633
sg14
Nsg15
(dp7634
g7630
F1.0
ssbg2
(g3
g4
Ntp7635
Rp7636
(dp7637
g8
F4.12722101827967e-07
sg9
g2
(g10
g11
F6.785530003177844e-08
tp7638
Rp7639
sg14
Nsg15
(dp7640
g7636
F1.0
ssbg2
(g3
g4
Ntp7641
Rp7642
(dp7643
g8
F5.91076968703419e-07
sg9
g2
(g10
g11
F7.691852138773944e-08
tp7644
Rp7645
sg14
Nsg15
(dp7646
g7642
F1.0
ssbg2
(g3
g4
Ntp7647
Rp7648
(dp7649
g8
F6.143799691216145e-09
sg9
g2
(g10
g11
F5.3247665766462385e-09
tp7650
Rp7651
sg14
Nsg15
(dp7652
g7648
F1.0
ssbF0.0
F0.0
F1.2904
tp7653
sS'eq3b_ge6j_600_900_mht_400_500'
p7654
(g2
(g3
g4
Ntp7655
Rp7656
(dp7657
g8
F0.1385335773229599
sg9
g2
(g10
g11
F0.03863559523879138
tp7658
Rp7659
sg14
Nsg15
(dp7660
g7656
F1.0
ssbg2
(g3
g4
Ntp7661
Rp7662
(dp7663
g8
F0.11517581343650818
sg9
g2
(g10
g11
F0.027680682204007247
tp7664
Rp7665
sg14
Nsg15
(dp7666
g7662
F1.0
ssbg2
(g3
g4
Ntp7667
Rp7668
(dp7669
g8
F0.023357771337032318
sg9
g2
(g10
g11
F0.012679097016711842
tp7670
Rp7671
sg14
Nsg15
(dp7672
g7668
F1.0
ssbg2
(g3
g4
Ntp7673
Rp7674
(dp7675
g8
F1.4079382104625893e-09
sg9
g2
(g10
g11
F1.1564525373267196e-09
tp7676
Rp7677
sg14
Nsg15
(dp7678
g7674
F1.0
ssbF1.0
F0.6321
F1.7505000000000002
tp7679
sS'eq3b_ge2a_400_600_mht_400_500'
p7680
(g2
(g3
g4
Ntp7681
Rp7682
(dp7683
g8
F0.0794847160577774
sg9
g2
(g10
g11
F0.012708869444633895
tp7684
Rp7685
sg14
Nsg15
(dp7686
g7682
F1.0
ssbg2
(g3
g4
Ntp7687
Rp7688
(dp7689
g8
F0.04850219562649727
sg9
g2
(g10
g11
F0.008080160910543288
tp7690
Rp7691
sg14
Nsg15
(dp7692
g7688
F1.0
ssbg2
(g3
g4
Ntp7693
Rp7694
(dp7695
g8
F0.030982516705989838
sg9
g2
(g10
g11
F0.006047826964027893
tp7696
Rp7697
sg14
Nsg15
(dp7698
g7694
F1.0
ssbg2
(g3
g4
Ntp7699
Rp7700
(dp7701
g8
F4.1679458495647026e-11
sg9
g2
(g10
g11
F3.163938203760308e-11
tp7702
Rp7703
sg14
Nsg15
(dp7704
g7700
F1.0
ssbF0.0
F0.0
F1.2904
tp7705
sS'eq1b_ge6j_900_1200_mht_200_400'
p7706
(g2
(g3
g4
Ntp7707
Rp7708
(dp7709
g8
F5.356104850769043
sg9
g2
(g10
g11
F1.2966725533816774
tp7710
Rp7711
sg14
Nsg15
(dp7712
g7708
F1.0
ssbg2
(g3
g4
Ntp7713
Rp7714
(dp7715
g8
F3.6347882747650146
sg9
g2
(g10
g11
F0.6926349752107476
tp7716
Rp7717
sg14
Nsg15
(dp7718
g7714
F1.0
ssbg2
(g3
g4
Ntp7719
Rp7720
(dp7721
g8
F1.5060499906539917
sg9
g2
(g10
g11
F0.6028894784839105
tp7722
Rp7723
sg14
Nsg15
(dp7724
g7720
F1.0
ssbg2
(g3
g4
Ntp7725
Rp7726
(dp7727
g8
F0.21526700258255005
sg9
g2
(g10
g11
F0.1868382330994105
tp7728
Rp7729
sg14
Nsg15
(dp7730
g7726
F1.0
ssbF5.0
F2.2495
F2.8064
tp7731
sS'eq1b_eq2j_900_1200_mht_400_600'
p7732
(g2
(g3
g4
Ntp7733
Rp7734
(dp7735
g8
F1.750786304473877
sg9
g2
(g10
g11
F0.4947729210230543
tp7736
Rp7737
sg14
Nsg15
(dp7738
g7734
F1.0
ssbg2
(g3
g4
Ntp7739
Rp7740
(dp7741
g8
F0.6206904649734497
sg9
g2
(g10
g11
F0.17548740410094632
tp7742
Rp7743
sg14
Nsg15
(dp7744
g7740
F1.0
ssbg2
(g3
g4
Ntp7745
Rp7746
(dp7747
g8
F1.1300958395004272
sg9
g2
(g10
g11
F0.23913445854524035
tp7748
Rp7749
sg14
Nsg15
(dp7750
g7746
F1.0
ssbg2
(g3
g4
Ntp7751
Rp7752
(dp7753
g8
F1.5673622122402975e-10
sg9
g2
(g10
g11
F1.132041366230998e-10
tp7754
Rp7755
sg14
Nsg15
(dp7756
g7752
F1.0
ssbF0.0
F0.0
F1.2904
tp7757
sS'eq1b_eq4j_600_900_mht_700_750'
p7758
(g2
(g3
g4
Ntp7759
Rp7760
(dp7761
g8
F3.9999849832383916e-07
sg9
g2
(g10
g11
F3.6130129640374633e-07
tp7762
Rp7763
sg14
Nsg15
(dp7764
g7760
F1.0
ssbg2
(g3
g4
Ntp7765
Rp7766
(dp7767
g8
F1.9999865230602154e-07
sg9
g2
(g10
g11
F1.2836783870125622e-07
tp7768
Rp7769
sg14
Nsg15
(dp7770
g7766
F1.0
ssbg2
(g3
g4
Ntp7771
Rp7772
(dp7773
g8
F1.9999986022867233e-07
sg9
g2
(g10
g11
F1.2758573298183736e-07
tp7774
Rp7775
sg14
Nsg15
(dp7776
g7772
F1.0
ssbg2
(g3
g4
Ntp7777
Rp7778
(dp7779
g8
F2.315803959661018e-16
sg9
g2
(g10
g11
F1.7996520030339188e-16
tp7780
Rp7781
sg14
Nsg15
(dp7782
g7778
F1.0
ssbF0.0
F0.0
F1.2904
tp7783
sS'eq0b_eq3j_900_1200_mht_600_900'
p7784
(g2
(g3
g4
Ntp7785
Rp7786
(dp7787
g8
F13.830316543579102
sg9
g2
(g10
g11
F5.069832171007981
tp7788
Rp7789
sg14
Nsg15
(dp7790
g7786
F1.0
ssbg2
(g3
g4
Ntp7791
Rp7792
(dp7793
g8
F2.938674211502075
sg9
g2
(g10
g11
F1.1617899705493009
tp7794
Rp7795
sg14
Nsg15
(dp7796
g7792
F1.0
ssbg2
(g3
g4
Ntp7797
Rp7798
(dp7799
g8
F10.891642570495605
sg9
g2
(g10
g11
F2.9369247457638874
tp7800
Rp7801
sg14
Nsg15
(dp7802
g7798
F1.0
ssbg2
(g3
g4
Ntp7803
Rp7804
(dp7805
g8
F2.8995807976883725e-09
sg9
g2
(g10
g11
F1.7983841274635275e-09
tp7806
Rp7807
sg14
Nsg15
(dp7808
g7804
F1.0
ssbF12.0
F3.1708999999999996
F4.292000000000002
tp7809
sS'eq2b_eq2j_400_600_mht_400_500'
p7810
(g2
(g3
g4
Ntp7811
Rp7812
(dp7813
g8
F1.8794490098953247
sg9
g2
(g10
g11
F0.5889710858798091
tp7814
Rp7815
sg14
Nsg15
(dp7816
g7812
F1.0
ssbg2
(g3
g4
Ntp7817
Rp7818
(dp7819
g8
F0.47292155027389526
sg9
g2
(g10
g11
F0.12718640389075572
tp7820
Rp7821
sg14
Nsg15
(dp7822
g7818
F1.0
ssbg2
(g3
g4
Ntp7823
Rp7824
(dp7825
g8
F1.3940303325653076
sg9
g2
(g10
g11
F0.35506299010734665
tp7826
Rp7827
sg14
Nsg15
(dp7828
g7824
F1.0
ssbg2
(g3
g4
Ntp7829
Rp7830
(dp7831
g8
F0.012497110292315483
sg9
g2
(g10
g11
F0.008229052209234193
tp7832
Rp7833
sg14
Nsg15
(dp7834
g7830
F1.0
ssbF0.0
F0.0
F1.2904
tp7835
sS'eq1b_eq5j_600_900_mht_600_700'
p7836
(g2
(g3
g4
Ntp7837
Rp7838
(dp7839
g8
F0.7323704361915588
sg9
g2
(g10
g11
F0.2306098014971823
tp7840
Rp7841
sg14
Nsg15
(dp7842
g7838
F1.0
ssbg2
(g3
g4
Ntp7843
Rp7844
(dp7845
g8
F0.22718031704425812
sg9
g2
(g10
g11
F0.053197907459454186
tp7846
Rp7847
sg14
Nsg15
(dp7848
g7844
F1.0
ssbg2
(g3
g4
Ntp7849
Rp7850
(dp7851
g8
F0.5051901340484619
sg9
g2
(g10
g11
F0.15707308083964225
tp7852
Rp7853
sg14
Nsg15
(dp7854
g7850
F1.0
ssbg2
(g3
g4
Ntp7855
Rp7856
(dp7857
g8
F1.2769841850612806e-09
sg9
g2
(g10
g11
F1.298925342434356e-09
tp7858
Rp7859
sg14
Nsg15
(dp7860
g7856
F1.0
ssbF1.0
F0.6321
F1.7505000000000002
tp7861
sS'eq2b_ge2a_600_900_mht_700_750'
p7862
(g2
(g3
g4
Ntp7863
Rp7864
(dp7865
g8
F3.9981628674468084e-07
sg9
g2
(g10
g11
F3.9853302911027833e-07
tp7866
Rp7867
sg14
Nsg15
(dp7868
g7864
F1.0
ssbg2
(g3
g4
Ntp7869
Rp7870
(dp7871
g8
F1.9988458177522261e-07
sg9
g2
(g10
g11
F1.406654922887733e-07
tp7872
Rp7873
sg14
Nsg15
(dp7874
g7870
F1.0
ssbg2
(g3
g4
Ntp7875
Rp7876
(dp7877
g8
F1.9993171918031294e-07
sg9
g2
(g10
g11
F1.4114114497137847e-07
tp7878
Rp7879
sg14
Nsg15
(dp7880
g7876
F1.0
ssbg2
(g3
g4
Ntp7881
Rp7882
(dp7883
g8
F3.269744376259632e-17
sg9
g2
(g10
g11
F2.7521923582051322e-17
tp7884
Rp7885
sg14
Nsg15
(dp7886
g7882
F1.0
ssbF0.0
F0.0
F1.2904
tp7887
sS'eq2b_eq4j_1200_Inf_mht_400_600'
p7888
(g2
(g3
g4
Ntp7889
Rp7890
(dp7891
g8
F0.18064719438552856
sg9
g2
(g10
g11
F0.03911849966985396
tp7892
Rp7893
sg14
Nsg15
(dp7894
g7890
F1.0
ssbg2
(g3
g4
Ntp7895
Rp7896
(dp7897
g8
F0.08726232498884201
sg9
g2
(g10
g11
F0.022909467642891708
tp7898
Rp7899
sg14
Nsg15
(dp7900
g7896
F1.0
ssbg2
(g3
g4
Ntp7901
Rp7902
(dp7903
g8
F0.09338486939668655
sg9
g2
(g10
g11
F0.018836247247390296
tp7904
Rp7905
sg14
Nsg15
(dp7906
g7902
F1.0
ssbg2
(g3
g4
Ntp7907
Rp7908
(dp7909
g8
F2.5367291600630892e-11
sg9
g2
(g10
g11
F2.8284445584201883e-11
tp7910
Rp7911
sg14
Nsg15
(dp7912
g7908
F1.0
ssbF0.0
F0.0
F1.2904
tp7913
sS'eq2b_eq4j_400_600_mht_400_500'
p7914
(g2
(g3
g4
Ntp7915
Rp7916
(dp7917
g8
F3.2935597896575928
sg9
g2
(g10
g11
F0.4986750595658048
tp7918
Rp7919
sg14
Nsg15
(dp7920
g7916
F1.0
ssbg2
(g3
g4
Ntp7921
Rp7922
(dp7923
g8
F2.0561652183532715
sg9
g2
(g10
g11
F0.33609334568795646
tp7924
Rp7925
sg14
Nsg15
(dp7926
g7922
F1.0
ssbg2
(g3
g4
Ntp7927
Rp7928
(dp7929
g8
F1.0462905168533325
sg9
g2
(g10
g11
F0.2009783597370898
tp7930
Rp7931
sg14
Nsg15
(dp7932
g7928
F1.0
ssbg2
(g3
g4
Ntp7933
Rp7934
(dp7935
g8
F0.1911039799451828
sg9
g2
(g10
g11
F0.13987974097984412
tp7936
Rp7937
sg14
Nsg15
(dp7938
g7934
F1.0
ssbF4.0
F1.6641
F2.7763999999999998
tp7939
s.